(dp1
S'output'
p2
S"<type 'exceptions.NameError'> name 'auth' is not defined"
p3
sS'layer'
p4
S'/home/flo/perso/www/web2py-R-2.9.11/applications/eip_solution/views/default/index.html'
p5
sS'code'
p6
S'response.write(\'<!--[if HTML5]><![endif]-->\\n<!DOCTYPE html>\\n<head>\\n\\n  <!-- include stylesheets -->\\n  \\n  \', escape=False)\nresponse.files.append(URL(\'static\',\'margo/asset/css/bootstrap.min.css\'))\nresponse.files.append(URL(\'static\',\'margo/css/font-awesome.min.css\'))\nresponse.files.append(URL(\'static\',\'margo/css/slicknav.css\'))\nresponse.files.append(URL(\'static\',\'margo/css/style.css\'))\nresponse.files.append(URL(\'static\',\'margo/css/responsive.css\'))\nresponse.files.append(URL(\'static\',\'margo/css/animate.css\'))\nresponse.files.append(URL(\'static\',\'margo/css/colors/red.css\'))\nresponse.write(\'\\n  \\n  \', escape=False)\nresponse.write(\'<script type="text/javascript"><!--\\n    // These variables are used by the web2py_ajax_init function in web2py_ajax.js (which is loaded below).\\n    var w2p_ajax_confirm_message = "\', escape=False)\nresponse.write(T(\'Are you sure you want to delete this object?\'))\nresponse.write(\'";\\n    var w2p_ajax_date_format = "\', escape=False)\nresponse.write(T(\'%Y-%m-%d\'))\nresponse.write(\'";\\n    var w2p_ajax_datetime_format = "\', escape=False)\nresponse.write(T(\'%Y-%m-%d %H:%M:%S\'))\nresponse.write(\'";\\n    var ajax_error_500 = \\\'\', escape=False)\nresponse.write(T.M(\'An error occured, please [[reload %s]] the page\') % URL(args=request.args, vars=request.get_vars))\nresponse.write("\'\\n    //--></script>\\n", escape=False)\nresponse.include_meta()\nresponse.include_files()\nresponse.write(\'\\n\', escape=False)\nresponse.write(\'\\n  \', escape=False)\nresponse.write(\'\\n</head>\\n\\n<body>\\n  <!-- Full Body Container -->\\n  <div id="container">\\n          \', escape=False)\nif response.menu and auth.is_logged_in():\n    response.write(\'\\n          \', escape=False)\n    response.write(MENU(response.menu, _class=\'mobile-menu nav\' if is_mobile else \'nav\',mobile=is_mobile,li_class=\'dropdown\',ul_class=\'dropdown-menu\'))\n    response.write(\'\\n          \', escape=False)\n    pass\nresponse.write(\'\\n    <!-- Start Header Section -->\\n    <div class="hidden-header"></div>\\n    <header class="clearfix">\\n\\n      <!-- Start Top Bar -->\\n      <div class="top-bar">\\n        <div class="container">\\n          <div class="row">\\n            <div class="col-md-7">\\n              <!-- Start Contact Info -->\\n              <ul class="contact-details">\\n                <li><a href="#"><i class="fa fa-map-marker"></i> House-54/A, London, UK</a>\\n                </li>\\n                <li><a href="#"><i class="fa fa-envelope-o"></i> info@yourcompany.com</a>\\n                </li>\\n                <li><a href="#"><i class="fa fa-phone"></i> +12 345 678 000</a>\\n                </li>\\n              </ul>\\n              <!-- End Contact Info -->\\n            </div>\\n            <!-- .col-md-6 -->\\n            <div class="col-md-5">\\n              <!-- Start Social Links -->\\n              <ul class="social-list">\\n                <li>\\n                  <a class="facebook itl-tooltip" data-placement="bottom" title="Facebook" href="#"><i class="fa fa-facebook"></i></a>\\n                </li>\\n                <li>\\n                  <a class="twitter itl-tooltip" data-placement="bottom" title="Twitter" href="#"><i class="fa fa-twitter"></i></a>\\n                </li>\\n                <li>\\n                  <a class="google itl-tooltip" data-placement="bottom" title="Google Plus" href="#"><i class="fa fa-google-plus"></i></a>\\n                </li>\\n                <li>\\n                  <a class="dribbble itl-tooltip" data-placement="bottom" title="Dribble" href="#"><i class="fa fa-dribbble"></i></a>\\n                </li>\\n                <li>\\n                  <a class="linkdin itl-tooltip" data-placement="bottom" title="Linkedin" href="#"><i class="fa fa-linkedin"></i></a>\\n                </li>\\n                <li>\\n                  <a class="flickr itl-tooltip" data-placement="bottom" title="Flickr" href="#"><i class="fa fa-flickr"></i></a>\\n                </li>\\n                <li>\\n                  <a class="tumblr itl-tooltip" data-placement="bottom" title="Tumblr" href="#"><i class="fa fa-tumblr"></i></a>\\n                </li>\\n                <li>\\n                  <a class="instgram itl-tooltip" data-placement="bottom" title="Instagram" href="#"><i class="fa fa-instagram"></i></a>\\n                </li>\\n                <li>\\n                  <a class="vimeo itl-tooltip" data-placement="bottom" title="vimeo" href="#"><i class="fa fa-vimeo-square"></i></a>\\n                </li>\\n                <li>\\n                  <a class="skype itl-tooltip" data-placement="bottom" title="Skype" href="#"><i class="fa fa-skype"></i></a>\\n                </li>\\n              </ul>\\n              <!-- End Social Links -->\\n            </div>\\n            <!-- .col-md-6 -->\\n          </div>\\n          <!-- .row -->\\n        </div>\\n        <!-- .container -->\\n      </div>\\n      <!-- .top-bar -->\\n      <!-- End Top Bar -->\\n\\n\\n      <!-- Start  Logo & Naviagtion  -->\\n      <div class="navbar navbar-default navbar-top">\\n        <div class="container">\\n          <div class="navbar-header">\\n            <!-- Stat Toggle Nav Link For Mobiles -->\\n            <button type="button" class="navbar-toggle" data-toggle="collapse" data-target=".navbar-collapse">\\n              <i class="fa fa-bars"></i>\\n            </button>\\n            <!-- End Toggle Nav Link For Mobiles -->\\n            <a class="navbar-brand" href="index.html">\\n              <img alt="" src="images/margo.png">\\n            </a>\\n          </div>\\n          <div class="navbar-collapse collapse">\\n            <!-- Stat Search -->\\n            <div class="search-side">\\n              <a class="show-search"><i class="fa fa-search"></i></a>\\n              <div class="search-form">\\n                <form autocomplete="off" role="search" method="get" class="searchform" action="#">\\n                  <input type="text" value="" name="s" id="s" placeholder="Search the site...">\\n                </form>\\n              </div>\\n            </div>\\n            <!-- End Search -->\\n            <!-- Start Navigation List -->\\n            <ul class="nav navbar-nav navbar-right">\\n              <li>\\n                <a class="active" href="index.html">Home</a>\\n                <ul class="dropdown">\\n                  <li><a class="active" href="index.html">Home Main Version</a>\\n                  </li>\\n                  <li><a href="index-01.html">Home Version 1</a>\\n                  </li>\\n                  <li><a href="index-02.html">Home Version 2</a>\\n                  </li>\\n                  <li><a href="index-03.html">Home Version 3</a>\\n                  </li>\\n                  <li><a href="index-04.html">Home Version 4</a>\\n                  </li>\\n                  <li><a href="index-05.html">Home Version 5</a>\\n                  </li>\\n                  <li><a href="index-06.html">Home Version 6</a>\\n                  </li>\\n                  <li><a href="index-07.html">Home Version 7</a>\\n                  </li>\\n                </ul>\\n              </li>\\n              <li>\\n                <a href="about.html">Pages</a>\\n                <ul class="dropdown">\\n                  <li><a href="about.html">About</a>\\n                  </li>\\n                  <li><a href="services.html">Services</a>\\n                  </li>\\n                  <li><a href="right-sidebar.html">Right Sidebar</a>\\n                  </li>\\n                  <li><a href="left-sidebar.html">Left Sidebar</a>\\n                  </li>\\n                  <li><a href="404.html">404 Page</a>\\n                  </li>\\n                </ul>\\n              </li>\\n              <li>\\n                <a href="#">Shortcodes</a>\\n                <ul class="dropdown">\\n                  <li><a href="tabs.html">Tabs</a>\\n                  </li>\\n                  <li><a href="buttons.html">Buttons</a>\\n                  </li>\\n                  <li><a href="action-box.html">Action Box</a>\\n                  </li>\\n                  <li><a href="testimonials.html">Testimonials</a>\\n                  </li>\\n                  <li><a href="latest-posts.html">Latest Posts</a>\\n                  </li>\\n                  <li><a href="latest-projects.html">Latest Projects</a>\\n                  </li>\\n                  <li><a href="pricing.html">Pricing Tables</a>\\n                  </li>\\n                  <li><a href="animated-graphs.html">Animated Graphs</a>\\n                  </li>\\n                  <li><a href="accordion-toggles.html">Accordion & Toggles</a>\\n                  </li>\\n                </ul>\\n              </li>\\n              <li>\\n                <a href="portfolio-3.html">Portfolio</a>\\n                <ul class="dropdown">\\n                  <li><a href="portfolio-2.html">2 Columns</a>\\n                  </li>\\n                  <li><a href="portfolio-3.html">3 Columns</a>\\n                  </li>\\n                  <li><a href="portfolio-4.html">4 Columns</a>\\n                  </li>\\n                  <li><a href="single-project.html">Single Project</a>\\n                  </li>\\n                </ul>\\n              </li>\\n              <li>\\n                <a href="blog.html">Blog</a>\\n                <ul class="dropdown">\\n                  <li><a href="blog.html">Blog - right Sidebar</a>\\n                  </li>\\n                  <li><a href="blog-left-sidebar.html">Blog - Left Sidebar</a>\\n                  </li>\\n                  <li><a href="single-post.html">Blog Single Post</a>\\n                  </li>\\n                </ul>\\n              </li>\\n              <li><a href="contact.html">Contact</a>\\n              </li>\\n            </ul>\\n            <!-- End Navigation List -->\\n          </div>\\n        </div>\\n\\n        <!-- Mobile Menu Start -->\\n        <ul class="wpb-mobile-menu">\\n          <li>\\n            <a class="active" href="index.html">Home</a>\\n            <ul class="dropdown">\\n              <li><a class="active" href="index.html">Home Main Version</a>\\n              </li>\\n              <li><a href="index-01.html">Home Version 1</a>\\n              </li>\\n              <li><a href="index-02.html">Home Version 2</a>\\n              </li>\\n              <li><a href="index-03.html">Home Version 3</a>\\n              </li>\\n              <li><a href="index-04.html">Home Version 4</a>\\n              </li>\\n              <li><a href="index-05.html">Home Version 5</a>\\n              </li>\\n              <li><a href="index-06.html">Home Version 6</a>\\n              </li>\\n              <li><a href="index-07.html">Home Version 7</a>\\n              </li>\\n            </ul>\\n          </li>\\n          <li>\\n            <a href="about.html">Pages</a>\\n            <ul class="dropdown">\\n              <li><a href="about.html">About</a>\\n              </li>\\n              <li><a href="services.html">Services</a>\\n              </li>\\n              <li><a href="right-sidebar.html">Right Sidebar</a>\\n              </li>\\n              <li><a href="left-sidebar.html">Left Sidebar</a>\\n              </li>\\n              <li><a href="404.html">404 Page</a>\\n              </li>\\n            </ul>\\n          </li>\\n          <li>\\n            <a href="#">Shortcodes</a>\\n            <ul class="dropdown">\\n              <li><a href="tabs.html">Tabs</a>\\n              </li>\\n              <li><a href="buttons.html">Buttons</a>\\n              </li>\\n              <li><a href="action-box.html">Action Box</a>\\n              </li>\\n              <li><a href="testimonials.html">Testimonials</a>\\n              </li>\\n              <li><a href="latest-posts.html">Latest Posts</a>\\n              </li>\\n              <li><a href="latest-projects.html">Latest Projects</a>\\n              </li>\\n              <li><a href="pricing.html">Pricing Tables</a>\\n              </li>\\n              <li><a href="animated-graphs.html">Animated Graphs</a>\\n              </li>\\n              <li><a href="accordion-toggles.html">Accordion & Toggles</a>\\n              </li>\\n            </ul>\\n          </li>\\n          <li>\\n            <a href="portfolio-3.html">Portfolio</a>\\n            <ul class="dropdown">\\n              <li><a href="portfolio-2.html">2 Columns</a>\\n              </li>\\n              <li><a href="portfolio-3.html">3 Columns</a>\\n              </li>\\n              <li><a href="portfolio-4.html">4 Columns</a>\\n              </li>\\n              <li><a href="single-project.html">Single Project</a>\\n              </li>\\n            </ul>\\n          </li>\\n          <li>\\n            <a href="blog.html">Blog</a>\\n            <ul class="dropdown">\\n              <li><a href="blog.html">Blog - right Sidebar</a>\\n              </li>\\n              <li><a href="blog-left-sidebar.html">Blog - Left Sidebar</a>\\n              </li>\\n              <li><a href="single-post.html">Blog Single Post</a>\\n              </li>\\n            </ul>\\n          </li>\\n          <li>\\n            <a href="contact.html">Contact</a>\\n          </li>\\n        </ul>\\n        <!-- Mobile Menu End -->\\n\\n      </div>\\n      <!-- End Header Logo & Naviagtion -->\\n\\n    </header>\\n    <!-- End Header Section -->\\n    \\n    \', escape=False)\nresponse.write(\'\\n    \', escape=False)\nresponse.write(\'\\n\\n<!-- Start Testimonials Section -->\\n    <div>\\n      <div class="container">\\n        <div class="row">\\n          <div class="col-md-8">\\n\\n            <!-- Start Recent Posts Carousel -->\\n            <div class="latest-posts">\\n              <h4 class="classic-title"><span>Latest News</span></h4>\\n              <div class="latest-posts-classic custom-carousel touch-carousel" data-appeared-items="2">\\n\\n                <!-- Posts 1 -->\\n                <div class="post-row item">\\n                  <div class="left-meta-post">\\n                    <div class="post-date"><span class="day">28</span><span class="month">Dec</span></div>\\n                    <div class="post-type"><i class="fa fa-picture-o"></i></div>\\n                  </div>\\n                  <h3 class="post-title"><a href="#">Standard Post With Image</a></h3>\\n                  <div class="post-content">\\n                    <p>Duis aute irure dolor in reprehenderit in voluptate velit esse cillum dolore eu fugiat nulla pariatur. Excepteur sint occaecat cupidatat non proident, sunt in culpa qui officia deserunt mollit. <a class="read-more" href="#">Read More...</a></p>\\n                  </div>\\n                </div>\\n\\n                <!-- Posts 2 -->\\n                <div class="post-row item">\\n                  <div class="left-meta-post">\\n                    <div class="post-date"><span class="day">26</span><span class="month">Dec</span></div>\\n                    <div class="post-type"><i class="fa fa-picture-o"></i></div>\\n                  </div>\\n                  <h3 class="post-title"><a href="#">Link Post</a></h3>\\n                  <div class="post-content">\\n                    <p>Duis aute irure dolor in reprehenderit in voluptate velit esse cillum dolore eu fugiat nulla pariatur. Excepteur sint occaecat cupidatat non proident, sunt in culpa qui officia deserunt mollit. <a class="read-more" href="#">Read More...</a></p>\\n                  </div>\\n                </div>\\n\\n                <!-- Posts 3 -->\\n                <div class="post-row item">\\n                  <div class="left-meta-post">\\n                    <div class="post-date"><span class="day">26</span><span class="month">Dec</span></div>\\n                    <div class="post-type"><i class="fa fa-picture-o"></i></div>\\n                  </div>\\n                  <h3 class="post-title"><a href="#">Iframe Video Post</a></h3>\\n                  <div class="post-content">\\n                    <p>Duis aute irure dolor in reprehenderit in voluptate velit esse cillum dolore eu fugiat nulla pariatur. Excepteur sint occaecat cupidatat non proident, sunt in culpa qui officia deserunt mollit. <a class="read-more" href="#">Read More...</a></p>\\n                  </div>\\n                </div>\\n\\n                <!-- Posts 4 -->\\n                <div class="post-row item">\\n                  <div class="left-meta-post">\\n                    <div class="post-date"><span class="day">26</span><span class="month">Dec</span></div>\\n                    <div class="post-type"><i class="fa fa-picture-o"></i></div>\\n                  </div>\\n                  <h3 class="post-title"><a href="#">Gallery Post</a></h3>\\n                  <div class="post-content">\\n                    <p>Duis aute irure dolor in reprehenderit in voluptate velit esse cillum dolore eu fugiat nulla pariatur. Excepteur sint occaecat cupidatat non proident, sunt in culpa qui officia deserunt mollit. <a class="read-more" href="#">Read More...</a></p>\\n                  </div>\\n                </div>\\n\\n                <!-- Posts 5 -->\\n                <div class="post-row item">\\n                  <div class="left-meta-post">\\n                    <div class="post-date"><span class="day">26</span><span class="month">Dec</span></div>\\n                    <div class="post-type"><i class="fa fa-picture-o"></i></div>\\n                  </div>\\n                  <h3 class="post-title"><a href="#">Standard Post without Image</a></h3>\\n                  <div class="post-content">\\n                    <p>Duis aute irure dolor in reprehenderit in voluptate velit esse cillum dolore eu fugiat nulla pariatur. Excepteur sint occaecat cupidatat non proident, sunt in culpa qui officia deserunt mollit. <a class="read-more" href="#">Read More...</a></p>\\n                  </div>\\n                </div>\\n\\n                <!-- Posts 6 -->\\n                <div class="post-row item">\\n                  <div class="left-meta-post">\\n                    <div class="post-date"><span class="day">26</span><span class="month">Dec</span></div>\\n                    <div class="post-type"><i class="fa fa-picture-o"></i></div>\\n                  </div>\\n                  <h3 class="post-title"><a href="#">Iframe Audio Post</a></h3>\\n                  <div class="post-content">\\n                    <p>Duis aute irure dolor in reprehenderit in voluptate velit esse cillum dolore eu fugiat nulla pariatur. Excepteur sint occaecat cupidatat non proident, sunt in culpa qui officia deserunt mollit. <a class="read-more" href="#">Read More...</a></p>\\n                  </div>\\n                </div>\\n\\n              </div>\\n            </div>\\n            <!-- End Recent Posts Carousel -->\\n\\n          </div>\\n\\n          <div class="col-md-4">\\n\\n            <!-- Classic Heading -->\\n            <h4 class="classic-title"><span>Testimonials</span></h4>\\n\\n            <!-- Start Testimonials Carousel -->\\n            <div class="custom-carousel show-one-slide touch-carousel" data-appeared-items="1">\\n              <!-- Testimonial 1 -->\\n              <div class="classic-testimonials item">\\n                <div class="testimonial-content">\\n                  <p>Excepteur sint occaecat cupidatat non proident, sunt in culpa qui officia deserunt mollit anim laborum. Lorem ipsum dolor sit amet, consectetur adipisicing elit.</p>\\n                </div>\\n                <div class="testimonial-author"><span>John Doe</span> - Customer</div>\\n              </div>\\n              <!-- Testimonial 2 -->\\n              <div class="classic-testimonials item">\\n                <div class="testimonial-content">\\n                  <p>Excepteur sint occaecat cupidatat non proident, sunt in culpa qui officia deserunt mollit anim laborum. Lorem ipsum dolor sit amet, consectetur adipisicing elit.</p>\\n                </div>\\n                <div class="testimonial-author"><span>John Doe</span> - Customer</div>\\n              </div>\\n              <!-- Testimonial 3 -->\\n              <div class="classic-testimonials item">\\n                <div class="testimonial-content">\\n                  <p>Excepteur sint occaecat cupidatat non proident, sunt in culpa qui officia deserunt mollit anim laborum. Lorem ipsum dolor sit amet, consectetur adipisicing elit.</p>\\n                </div>\\n                <div class="testimonial-author"><span>John Doe</span> - Customer</div>\\n              </div>\\n            </div>\\n            <!-- End Testimonials Carousel -->\\n\\n          </div>\\n        </div>\\n      </div>\\n    </div>\\n    \\n   <!-- Start Team Member Section -->\\n    <div class="section" style="background:#fff;">\\n      <div class="container">\\n\\n        <!-- Start Big Heading -->\\n        <div class="big-title text-center" data-animation="fadeInDown" data-animation-delay="01">\\n          <h1>Our Great <strong>Team</strong></h1>\\n        </div>\\n        <!-- End Big Heading -->\\n\\n        <!-- Some Text -->\\n        <p class="text-center">Sed ut perspiciatis unde omnis iste natus error sit voluptatem accusantium <span class="accent-color sh-tooltip" data-placement="right" title="Simple Tooltip">doloremque laudantium</span>, totam rem aperiam, eaque ipsa quae ab illo inventore\\n          <br/>veritatis et quasi <span class="accent-color sh-tooltip" data-placement="bottom" title="Simple Tooltip">architecto</span> beatae vitae dicta sunt explicabo. Nemo enim ipsam voluptatem quia voluptas sit aspernatur aut odit aut fugit.</p>\\n\\n\\n        <!-- Start Team Members -->\\n        <div class="row">\\n\\n          <!-- Start Memebr 1 -->\\n          <div class="col-md-3 col-sm-6 col-xs-12" data-animation="fadeIn" data-animation-delay="03">\\n            <div class="team-member modern">\\n              <!-- Memebr Photo, Name & Position -->\\n              <div class="member-photo">\\n                <img alt="" src="images/team/face_1.png" />\\n                <div class="member-name">John Doe <span>Developer</span>\\n                </div>\\n              </div>\\n              <!-- Memebr Words -->\\n              <div class="member-info">\\n                <p>Duis aute irure dolor in reprehenderit in voluptate velit esse cillum dolore fugiat.</p>\\n              </div>\\n              <!-- Start Progress Bar 1 -->\\n              <div class="progress-label">Photoshop</div>\\n              <div class="progress">\\n                <div class="progress-bar progress-bar-primary" data-progress-animation="96%" data-appear-animation-delay="400">\\n                  <span class="percentage">96%</span>\\n                </div>\\n              </div>\\n              <!-- Start Progress Bar 2 -->\\n              <div class="progress-label">Logo Design</div>\\n              <div class="progress">\\n                <div class="progress-bar progress-bar-primary" data-progress-animation="88%" data-appear-animation-delay="800">\\n                  <span class="percentage">88%</span>\\n                </div>\\n              </div>\\n              <!-- Start Progress Bar 3 -->\\n              <div class="progress-label">Vectors Design</div>\\n              <div class="progress">\\n                <div class="progress-bar progress-bar-primary" data-progress-animation="100%" data-appear-animation-delay="1200">\\n                  <span class="percentage">100%</span>\\n                </div>\\n              </div>\\n              <!-- Memebr Social Links -->\\n              <div class="member-socail">\\n                <a class="twitter" href="#"><i class="fa fa-twitter"></i></a>\\n                <a class="gplus" href="#"><i class="fa fa-google-plus"></i></a>\\n                <a class="linkedin" href="#"><i class="fa fa-linkedin"></i></a>\\n                <a class="flickr" href="#"><i class="fa fa-flickr"></i></a>\\n                <a class="mail" href="#"><i class="fa fa-envelope"></i></a>\\n              </div>\\n            </div>\\n          </div>\\n          <!-- End Memebr 1 -->\\n\\n          <!-- Start Memebr 2 -->\\n          <div class="col-md-3 col-sm-6 col-xs-12" data-animation="fadeIn" data-animation-delay="04">\\n            <div class="team-member modern">\\n              <!-- Memebr Photo, Name & Position -->\\n              <div class="member-photo">\\n                <img alt="" src="images/team/face_2.png" />\\n                <div class="member-name">Silly Sally <span>Developer</span>\\n                </div>\\n              </div>\\n              <!-- Memebr Words -->\\n              <div class="member-info">\\n                <p>Duis aute irure dolor in reprehenderit in voluptate velit esse cillum dolore fugiat.</p>\\n              </div>\\n              <!-- Start Progress Bar 1 -->\\n              <div class="progress-label">Photoshop</div>\\n              <div class="progress">\\n                <div class="progress-bar progress-bar-primary" data-progress-animation="96%" data-appear-animation-delay="400">\\n                  <span class="percentage">96%</span>\\n                </div>\\n              </div>\\n              <!-- Start Progress Bar 2 -->\\n              <div class="progress-label">Logo Design</div>\\n              <div class="progress">\\n                <div class="progress-bar progress-bar-primary" data-progress-animation="88%" data-appear-animation-delay="800">\\n                  <span class="percentage">88%</span>\\n                </div>\\n              </div>\\n              <!-- Start Progress Bar 3 -->\\n              <div class="progress-label">Vectors Design</div>\\n              <div class="progress">\\n                <div class="progress-bar progress-bar-primary" data-progress-animation="100%" data-appear-animation-delay="1200">\\n                  <span class="percentage">100%</span>\\n                </div>\\n              </div>\\n              <!-- Memebr Social Links -->\\n              <div class="member-socail">\\n                <a class="twitter" href="#"><i class="fa fa-twitter"></i></a>\\n                <a class="gplus" href="#"><i class="fa fa-google-plus"></i></a>\\n                <a class="linkedin" href="#"><i class="fa fa-linkedin"></i></a>\\n                <a class="flickr" href="#"><i class="fa fa-flickr"></i></a>\\n                <a class="mail" href="#"><i class="fa fa-envelope"></i></a>\\n              </div>\\n            </div>\\n          </div>\\n          <!-- End Memebr 2 -->\\n\\n          <!-- Start Memebr 3 -->\\n          <div class="col-md-3 col-sm-6 col-xs-12" data-animation="fadeIn" data-animation-delay="05">\\n            <div class="team-member modern">\\n              <!-- Memebr Photo, Name & Position -->\\n              <div class="member-photo">\\n                <img alt="" src="images/team/face_3.png" />\\n                <div class="member-name">Chris John <span>Developer</span>\\n                </div>\\n              </div>\\n              <!-- Memebr Words -->\\n              <div class="member-info">\\n                <p>Duis aute irure dolor in reprehenderit in voluptate velit esse cillum dolore fugiat.</p>\\n              </div>\\n              <!-- Start Progress Bar 1 -->\\n              <div class="progress-label">Photoshop</div>\\n              <div class="progress">\\n                <div class="progress-bar progress-bar-primary" data-progress-animation="96%" data-appear-animation-delay="400">\\n                  <span class="percentage">96%</span>\\n                </div>\\n              </div>\\n              <!-- Start Progress Bar 2 -->\\n              <div class="progress-label">Logo Design</div>\\n              <div class="progress">\\n                <div class="progress-bar progress-bar-primary" data-progress-animation="94%" data-appear-animation-delay="800">\\n                  <span class="percentage">94%</span>\\n                </div>\\n              </div>\\n              <!-- Start Progress Bar 3 -->\\n              <div class="progress-label">Vectors Design</div>\\n              <div class="progress">\\n                <div class="progress-bar progress-bar-primary" data-progress-animation="90%" data-appear-animation-delay="1200">\\n                  <span class="percentage">90%</span>\\n                </div>\\n              </div>\\n              <!-- Memebr Social Links -->\\n              <div class="member-socail">\\n                <a class="twitter" href="#"><i class="fa fa-twitter"></i></a>\\n                <a class="gplus" href="#"><i class="fa fa-google-plus"></i></a>\\n                <a class="linkedin" href="#"><i class="fa fa-linkedin"></i></a>\\n                <a class="flickr" href="#"><i class="fa fa-flickr"></i></a>\\n                <a class="mail" href="#"><i class="fa fa-envelope"></i></a>\\n              </div>\\n            </div>\\n          </div>\\n          <!-- End Memebr 3 -->\\n\\n          <!-- Start Memebr 4 -->\\n          <div class="col-md-3 col-sm-6 col-xs-12" data-animation="fadeIn" data-animation-delay="06">\\n            <div class="team-member modern">\\n              <!-- Memebr Photo, Name & Position -->\\n              <div class="member-photo">\\n                <img alt="" src="images/team/face_4.png" />\\n                <div class="member-name">Sara John <span>Developer</span>\\n                </div>\\n              </div>\\n              <!-- Memebr Words -->\\n              <div class="member-info">\\n                <p>Duis aute irure dolor in reprehenderit in voluptate velit esse cillum dolore fugiat.</p>\\n              </div>\\n              <!-- Start Progress Bar 1 -->\\n              <div class="progress-label">Photoshop</div>\\n              <div class="progress">\\n                <div class="progress-bar progress-bar-primary" data-progress-animation="96%" data-appear-animation-delay="400">\\n                  <span class="percentage">96%</span>\\n                </div>\\n              </div>\\n              <!-- Start Progress Bar 2 -->\\n              <div class="progress-label">Logo Design</div>\\n              <div class="progress">\\n                <div class="progress-bar progress-bar-primary" data-progress-animation="85%" data-appear-animation-delay="800">\\n                  <span class="percentage">85%</span>\\n                </div>\\n              </div>\\n              <!-- Start Progress Bar 3 -->\\n              <div class="progress-label">Vectors Design</div>\\n              <div class="progress">\\n                <div class="progress-bar progress-bar-primary" data-progress-animation="100%" data-appear-animation-delay="1200">\\n                  <span class="percentage">100%</span>\\n                </div>\\n              </div>\\n              <!-- Memebr Social Links -->\\n              <div class="member-socail">\\n                <a class="twitter" href="#"><i class="fa fa-twitter"></i></a>\\n                <a class="gplus" href="#"><i class="fa fa-google-plus"></i></a>\\n                <a class="linkedin" href="#"><i class="fa fa-linkedin"></i></a>\\n                <a class="flickr" href="#"><i class="fa fa-flickr"></i></a>\\n                <a class="mail" href="#"><i class="fa fa-envelope"></i></a>\\n              </div>\\n            </div>\\n          </div>\\n          <!-- End Memebr 4 -->\\n\\n        </div>\\n        <!-- End Team Members -->\\n\\n      </div>\\n      <!-- .container -->\\n    </div>\\n    <!-- End Team Member Section -->\\n\\n\', escape=False)\nresponse.write(\'\\n    \', escape=False)\nresponse.write(\'\\n\\n  </div> <!-- /container -->\\n  \\n  <!-- Start Footer Section -->\\n    <footer>\\n      <div class="container">\\n        <div class="row footer-widgets">\\n\\n\\n          <!-- Start Subscribe & Social Links Widget -->\\n          <div class="col-md-3 col-xs-12">\\n            <div class="footer-widget mail-subscribe-widget">\\n              <h4>Get in touch<span class="head-line"></span></h4>\\n              <p>Join our mailing list to stay up to date and get notices about our new releases!</p>\\n              <form class="subscribe">\\n                <input type="text" placeholder="mail@example.com">\\n                <input type="submit" class="btn-system" value="Send">\\n              </form>\\n            </div>\\n            <div class="footer-widget social-widget">\\n              <h4>Follow Us<span class="head-line"></span></h4>\\n              <ul class="social-icons">\\n                <li>\\n                  <a class="facebook" href="#"><i class="fa fa-facebook"></i></a>\\n                </li>\\n                <li>\\n                  <a class="twitter" href="#"><i class="fa fa-twitter"></i></a>\\n                </li>\\n                <li>\\n                  <a class="google" href="#"><i class="fa fa-google-plus"></i></a>\\n                </li>\\n                <li>\\n                  <a class="dribbble" href="#"><i class="fa fa-dribbble"></i></a>\\n                </li>\\n                <li>\\n                  <a class="linkdin" href="#"><i class="fa fa-linkedin"></i></a>\\n                </li>\\n                <li>\\n                  <a class="flickr" href="#"><i class="fa fa-flickr"></i></a>\\n                </li>\\n                <li>\\n                  <a class="tumblr" href="#"><i class="fa fa-tumblr"></i></a>\\n                </li>\\n                <li>\\n                  <a class="instgram" href="#"><i class="fa fa-instagram"></i></a>\\n                </li>\\n                <li>\\n                  <a class="vimeo" href="#"><i class="fa fa-vimeo-square"></i></a>\\n                </li>\\n                <li>\\n                  <a class="skype" href="#"><i class="fa fa-skype"></i></a>\\n                </li>\\n              </ul>\\n            </div>\\n          </div>\\n          <!-- .col-md-3 -->\\n          <!-- End Subscribe & Social Links Widget -->\\n\\n\\n          <!-- Start Twitter Widget -->\\n          <div class="col-md-3 col-xs-12">\\n            <div class="footer-widget twitter-widget">\\n              <h4>Twitter Feed<span class="head-line"></span></h4>\\n              <ul>\\n                <li>\\n                  <p><a href="#">@GrayGrids </a> Lorem ipsum dolor et, consectetur adipiscing eli.</p>\\n                  <span>28 February 2014</span>\\n                </li>\\n                <li>\\n                  <p><a href="#">@GrayGrids </a> Lorem ipsum dolor et, consectetur adipiscing eli.An Fusce eleifend aliquet nis application.</p>\\n                  <span>26 February 2014</span>\\n                </li>\\n                <li>\\n                  <p><a href="#">@GrayGrids </a> Lorem ipsum dolor et, consectetur adipiscing eli.</p>\\n                  <span>28 February 2014</span>\\n                </li>\\n              </ul>\\n            </div>\\n          </div>\\n          <!-- .col-md-3 -->\\n          <!-- End Twitter Widget -->\\n\\n\\n          <!-- Start Flickr Widget -->\\n          <div class="col-md-3 col-xs-12">\\n            <div class="footer-widget flickr-widget">\\n              <h4>Flicker Feed<span class="head-line"></span></h4>\\n              <ul class="flickr-list">\\n                <li>\\n                  <a href="images/flickr-01.jpg" class="lightbox">\\n                    <img alt="" src="images/flickr-01.jpg">\\n                  </a>\\n                </li>\\n                <li>\\n                  <a href="images/flickr-02.jpg" class="lightbox">\\n                    <img alt="" src="images/flickr-02.jpg">\\n                  </a>\\n                </li>\\n                <li>\\n                  <a href="images/flickr-03.jpg" class="lightbox">\\n                    <img alt="" src="images/flickr-03.jpg">\\n                  </a>\\n                </li>\\n                <li>\\n                  <a href="images/flickr-04.jpg" class="lightbox">\\n                    <img alt="" src="images/flickr-04.jpg">\\n                  </a>\\n                </li>\\n                <li>\\n                  <a href="images/flickr-05.jpg" class="lightbox">\\n                    <img alt="" src="images/flickr-05.jpg">\\n                  </a>\\n                </li>\\n                <li>\\n                  <a href="images/flickr-06.jpg" class="lightbox">\\n                    <img alt="" src="images/flickr-06.jpg">\\n                  </a>\\n                </li>\\n                <li>\\n                  <a href="images/flickr-07.jpg" class="lightbox">\\n                    <img alt="" src="images/flickr-07.jpg">\\n                  </a>\\n                </li>\\n                <li>\\n                  <a href="images/flickr-08.jpg" class="lightbox">\\n                    <img alt="" src="images/flickr-08.jpg">\\n                  </a>\\n                </li>\\n                <li>\\n                  <a href="images/flickr-09.jpg" class="lightbox">\\n                    <img alt="" src="images/flickr-09.jpg">\\n                  </a>\\n                </li>\\n              </ul>\\n            </div>\\n          </div>\\n          <!-- .col-md-3 -->\\n          <!-- End Flickr Widget -->\\n\\n\\n          <!-- Start Contact Widget -->\\n          <div class="col-md-3 col-xs-12">\\n            <div class="footer-widget contact-widget">\\n              <h4><img src="images/footer-margo.png" class="img-responsive" alt="Footer Logo" /></h4>\\n              <p>At vero eos et accusamus et iusto odio dignissimos ducimus qui blanditiis praesentium voluptatum deleniti atque corrupti quos dolores et quas molestias excepturi sint occaecati cupiditate non provident</p>\\n              <ul>\\n                <li><span>Phone Number:</span> +01 234 567 890</li>\\n                <li><span>Email:</span> company@company.com</li>\\n                <li><span>Website:</span> www.yourdomain.com</li>\\n              </ul>\\n            </div>\\n          </div>\\n          <!-- .col-md-3 -->\\n          <!-- End Contact Widget -->\\n\\n\\n        </div>\\n        <!-- .row -->\\n\\n        <!-- Start Copyright -->\\n        <div class="copyright-section">\\n          <div class="row">\\n            <div class="col-md-6">\\n              <p>&copy; 2014 Margo - All Rights Reserved <a href="http://graygrids.com">GrayGrids</a> </p>\\n            </div>\\n            <!-- .col-md-6 -->\\n            <div class="col-md-6">\\n              <ul class="footer-nav">\\n                <li><a href="#">Sitemap</a>\\n                </li>\\n                <li><a href="#">Privacy Policy</a>\\n                </li>\\n                <li><a href="#">Contact</a>\\n                </li>\\n              </ul>\\n            </div>\\n            <!-- .col-md-6 -->\\n          </div>\\n          <!-- .row -->\\n        </div>\\n        <!-- End Copyright -->\\n\\n      </div>\\n    </footer>\\n    <!-- End Footer Section -->\\n\\n  <!-- The javascript =============================================\\n       (Placed at the end of the document so the pages load faster) -->\\n  <script src="\', escape=False)\nresponse.write(URL(\'static\',\'margo/js/jquery-2.1.4.min.js\'))\nresponse.write(\'"></script>\\n  <script src="\', escape=False)\nresponse.write(URL(\'static\',\'margo/js/jquery.migrate.js\'))\nresponse.write(\'"></script>\\n  <script src="\', escape=False)\nresponse.write(URL(\'static\',\'margo/js/modernizrr.js\'))\nresponse.write(\'"></script>\\n  <script src="\', escape=False)\nresponse.write(URL(\'static\',\'margo/asset/js/bootstrap.min.js\'))\nresponse.write(\'"></script>\\n  <script src="\', escape=False)\nresponse.write(URL(\'static\',\'margo/js/jquery.fitvids.js\'))\nresponse.write(\'"></script>\\n  <script src="\', escape=False)\nresponse.write(URL(\'static\',\'margo/js/owl.carousel.min.js\'))\nresponse.write(\'"></script>\\n  <script src="\', escape=False)\nresponse.write(URL(\'static\',\'margo/js/nivo-lightbox.min.js\'))\nresponse.write(\'"></script>\\n  <script src="\', escape=False)\nresponse.write(URL(\'static\',\'margo/js/jquery.isotope.min.js\'))\nresponse.write(\'"></script>\\n  <script src="\', escape=False)\nresponse.write(URL(\'static\',\'margo/js/jquery.appear.js\'))\nresponse.write(\'"></script>\\n  <script src="\', escape=False)\nresponse.write(URL(\'static\',\'margo/js/count-to.js\'))\nresponse.write(\'"></script>\\n  <script src="\', escape=False)\nresponse.write(URL(\'static\',\'margo/js/jquery.textillate.js\'))\nresponse.write(\'"></script>\\n  <script src="\', escape=False)\nresponse.write(URL(\'static\',\'margo/js/jquery.lettering.js\'))\nresponse.write(\'"></script>\\n  <script src="\', escape=False)\nresponse.write(URL(\'static\',\'margo/js/jquery.easypiechart.min.js\'))\nresponse.write(\'"></script>\\n  <script src="\', escape=False)\nresponse.write(URL(\'static\',\'margo/js/jquery.nicescroll.min.js\'))\nresponse.write(\'"></script>\\n  <script src="\', escape=False)\nresponse.write(URL(\'static\',\'margo/js/jquery.parallax.js\'))\nresponse.write(\'"></script>\\n  <script src="\', escape=False)\nresponse.write(URL(\'static\',\'margo/js/mediaelement-and-player.js\'))\nresponse.write(\'"></script>\\n  <script src="\', escape=False)\nresponse.write(URL(\'static\',\'margo/js/jquery.slicknav.js\'))\nresponse.write(\'"></script>\\n  \\n  <script src="\', escape=False)\nresponse.write(URL(\'static\',\'margo/js/script.js\'))\nresponse.write(\'"></script>\\n</body>\\n</html>\\n\\n\', escape=False)'
p7
sS'snapshot'
p8
(dp9
S'exception'
p10
(dp11
S'__hash__'
p12
S"<method-wrapper '__hash__' of exceptions.NameError object>"
p13
sS'__setattr__'
p14
S"<method-wrapper '__setattr__' of exceptions.NameError object>"
p15
sS'__reduce_ex__'
p16
S'<built-in method __reduce_ex__ of exceptions.NameError object>'
p17
sS'__getslice__'
p18
S"<method-wrapper '__getslice__' of exceptions.NameError object>"
p19
sS'__getitem__'
p20
S"<method-wrapper '__getitem__' of exceptions.NameError object>"
p21
sS'__setstate__'
p22
S'<built-in method __setstate__ of exceptions.NameError object>'
p23
sS'args'
p24
S'("name \'auth\' is not defined",)'
p25
sS'__reduce__'
p26
S'<built-in method __reduce__ of exceptions.NameError object>'
p27
sS'__str__'
p28
S"<method-wrapper '__str__' of exceptions.NameError object>"
p29
sS'__format__'
p30
S'<built-in method __format__ of exceptions.NameError object>'
p31
sS'__getattribute__'
p32
S"<method-wrapper '__getattribute__' of exceptions.NameError object>"
p33
sS'__class__'
p34
S"<type 'exceptions.NameError'>"
p35
sS'__unicode__'
p36
S'<built-in method __unicode__ of exceptions.NameError object>'
p37
sS'__delattr__'
p38
S"<method-wrapper '__delattr__' of exceptions.NameError object>"
p39
sS'__subclasshook__'
p40
S'<built-in method __subclasshook__ of type object>'
p41
sS'__repr__'
p42
S"<method-wrapper '__repr__' of exceptions.NameError object>"
p43
sS'__dict__'
p44
S'{}'
p45
sS'__sizeof__'
p46
S'<built-in method __sizeof__ of exceptions.NameError object>'
p47
sS'__doc__'
p48
S"'Name not found globally.'"
p49
sS'__init__'
p50
S"<method-wrapper '__init__' of exceptions.NameError object>"
p51
sS'__new__'
p52
S'<built-in method __new__ of type object>'
p53
ssS'evalue'
p54
S"name 'auth' is not defined"
p55
sS'request'
p56
cgluon.html
XML_unpickle
p57
(S's\x87p\x00\x00<div><table><tr><td style="font-weight:bold;vertical-align:top;">ajax</td><td style="vertical-align:top;">:</td><td><div>False</div></td></tr><tr><td style="font-weight:bold;vertical-align:top;">application</td><td style="vertical-align:top;">:</td><td><div>eip_solution</div></td></tr><tr><td style="font-weight:bold;vertical-align:top;">args</td><td style="vertical-align:top;">:</td><td><div><table></table></div></td></tr><tr><td style="font-weight:bold;vertical-align:top;">cid</td><td style="vertical-align:top;">:</td><td><div>None</div></td></tr><tr><td style="font-weight:bold;vertical-align:top;">client</td><td style="vertical-align:top;">:</td><td><div>127.0.0.1</div></td></tr><tr><td style="font-weight:bold;vertical-align:top;">controller</td><td style="vertical-align:top;">:</td><td><div>default</div></td></tr><tr><td style="font-weight:bold;vertical-align:top;">cookies</td><td style="vertical-align:top;">:</td><td><div><table><tr><td style="font-weight:bold;vertical-align:top;">session_data_eip_solution</td><td style="vertical-align:top;">:</td><td><div>b6c4f1991a301b8b3d52314286a95b2b:k54AH1HvqKyJEn-QNoGJ2t1r-YhwbpO2BuFEqigw9pOEwaQtb_n2gXfBLWzj2aicbwGIV8z5IVYalFwEz9yERaABmO3rA8zT3Quukl4EMse7AEjLfKfGXHp1Qq_hmhehmDddcVkMiGiBP5RWQiUtDPLDndedUi4GfQRzl48eo4KjIN3834Eyi5KsFFjdLKb5uBGJGVc-gm-Lkx3fRVkig_rSFy0zFgPenaFB1t9eWGFbdajGy2Ukgb_SK1TtxZ_WpouewQDm9ayZHscanStnXb-si34JtOzFCy_dDrCun_ghXd_1ZZ8i_5UwGUF9o_2u<table><tr><td style="font-weight:bold;vertical-align:top;">comment</td><td style="vertical-align:top;">:</td><td><div></div></td></tr><tr><td style="font-weight:bold;vertical-align:top;">domain</td><td style="vertical-align:top;">:</td><td><div></div></td></tr><tr><td style="font-weight:bold;vertical-align:top;">expires</td><td style="vertical-align:top;">:</td><td><div></div></td></tr><tr><td style="font-weight:bold;vertical-align:top;">httponly</td><td style="vertical-align:top;">:</td><td><div></div></td></tr><tr><td style="font-weight:bold;vertical-align:top;">max-age</td><td style="vertical-align:top;">:</td><td><div></div></td></tr><tr><td style="font-weight:bold;vertical-align:top;">path</td><td style="vertical-align:top;">:</td><td><div></div></td></tr><tr><td style="font-weight:bold;vertical-align:top;">secure</td><td style="vertical-align:top;">:</td><td><div></div></td></tr><tr><td style="font-weight:bold;vertical-align:top;">version</td><td style="vertical-align:top;">:</td><td><div></div></td></tr></table></div></td></tr><tr><td style="font-weight:bold;vertical-align:top;">session_id_admin</td><td style="vertical-align:top;">:</td><td><div>127.0.0.1-3e84f48c-c9b5-43ec-a74e-b1cece858e8a<table><tr><td style="font-weight:bold;vertical-align:top;">comment</td><td style="vertical-align:top;">:</td><td><div></div></td></tr><tr><td style="font-weight:bold;vertical-align:top;">domain</td><td style="vertical-align:top;">:</td><td><div></div></td></tr><tr><td style="font-weight:bold;vertical-align:top;">expires</td><td style="vertical-align:top;">:</td><td><div></div></td></tr><tr><td style="font-weight:bold;vertical-align:top;">httponly</td><td style="vertical-align:top;">:</td><td><div></div></td></tr><tr><td style="font-weight:bold;vertical-align:top;">max-age</td><td style="vertical-align:top;">:</td><td><div></div></td></tr><tr><td style="font-weight:bold;vertical-align:top;">path</td><td style="vertical-align:top;">:</td><td><div></div></td></tr><tr><td style="font-weight:bold;vertical-align:top;">secure</td><td style="vertical-align:top;">:</td><td><div></div></td></tr><tr><td style="font-weight:bold;vertical-align:top;">version</td><td style="vertical-align:top;">:</td><td><div></div></td></tr></table></div></td></tr><tr><td style="font-weight:bold;vertical-align:top;">session_id_eip_solution</td><td style="vertical-align:top;">:</td><td><div>True<table><tr><td style="font-weight:bold;vertical-align:top;">comment</td><td style="vertical-align:top;">:</td><td><div></div></td></tr><tr><td style="font-weight:bold;vertical-align:top;">domain</td><td style="vertical-align:top;">:</td><td><div></div></td></tr><tr><td style="font-weight:bold;vertical-align:top;">expires</td><td style="vertical-align:top;">:</td><td><div></div></td></tr><tr><td style="font-weight:bold;vertical-align:top;">httponly</td><td style="vertical-align:top;">:</td><td><div></div></td></tr><tr><td style="font-weight:bold;vertical-align:top;">max-age</td><td style="vertical-align:top;">:</td><td><div></div></td></tr><tr><td style="font-weight:bold;vertical-align:top;">path</td><td style="vertical-align:top;">:</td><td><div></div></td></tr><tr><td style="font-weight:bold;vertical-align:top;">secure</td><td style="vertical-align:top;">:</td><td><div></div></td></tr><tr><td style="font-weight:bold;vertical-align:top;">version</td><td style="vertical-align:top;">:</td><td><div></div></td></tr></table></div></td></tr><tr><td style="font-weight:bold;vertical-align:top;">session_id_eip_web</td><td style="vertical-align:top;">:</td><td><div>127.0.0.1-290faa9f-c9a4-4161-a3e1-d86af56fc251<table><tr><td style="font-weight:bold;vertical-align:top;">comment</td><td style="vertical-align:top;">:</td><td><div></div></td></tr><tr><td style="font-weight:bold;vertical-align:top;">domain</td><td style="vertical-align:top;">:</td><td><div></div></td></tr><tr><td style="font-weight:bold;vertical-align:top;">expires</td><td style="vertical-align:top;">:</td><td><div></div></td></tr><tr><td style="font-weight:bold;vertical-align:top;">httponly</td><td style="vertical-align:top;">:</td><td><div></div></td></tr><tr><td style="font-weight:bold;vertical-align:top;">max-age</td><td style="vertical-align:top;">:</td><td><div></div></td></tr><tr><td style="font-weight:bold;vertical-align:top;">path</td><td style="vertical-align:top;">:</td><td><div></div></td></tr><tr><td style="font-weight:bold;vertical-align:top;">secure</td><td style="vertical-align:top;">:</td><td><div></div></td></tr><tr><td style="font-weight:bold;vertical-align:top;">version</td><td style="vertical-align:top;">:</td><td><div></div></td></tr></table></div></td></tr><tr><td style="font-weight:bold;vertical-align:top;">session_id_welcome</td><td style="vertical-align:top;">:</td><td><div>127.0.0.1-4c165ec1-37dd-4daf-980a-d64fd33744be<table><tr><td style="font-weight:bold;vertical-align:top;">comment</td><td style="vertical-align:top;">:</td><td><div></div></td></tr><tr><td style="font-weight:bold;vertical-align:top;">domain</td><td style="vertical-align:top;">:</td><td><div></div></td></tr><tr><td style="font-weight:bold;vertical-align:top;">expires</td><td style="vertical-align:top;">:</td><td><div></div></td></tr><tr><td style="font-weight:bold;vertical-align:top;">httponly</td><td style="vertical-align:top;">:</td><td><div></div></td></tr><tr><td style="font-weight:bold;vertical-align:top;">max-age</td><td style="vertical-align:top;">:</td><td><div></div></td></tr><tr><td style="font-weight:bold;vertical-align:top;">path</td><td style="vertical-align:top;">:</td><td><div></div></td></tr><tr><td style="font-weight:bold;vertical-align:top;">secure</td><td style="vertical-align:top;">:</td><td><div></div></td></tr><tr><td style="font-weight:bold;vertical-align:top;">version</td><td style="vertical-align:top;">:</td><td><div></div></td></tr></table></div></td></tr><tr><td style="font-weight:bold;vertical-align:top;">style</td><td style="vertical-align:top;">:</td><td><div>null<table><tr><td style="font-weight:bold;vertical-align:top;">comment</td><td style="vertical-align:top;">:</td><td><div></div></td></tr><tr><td style="font-weight:bold;vertical-align:top;">domain</td><td style="vertical-align:top;">:</td><td><div></div></td></tr><tr><td style="font-weight:bold;vertical-align:top;">expires</td><td style="vertical-align:top;">:</td><td><div></div></td></tr><tr><td style="font-weight:bold;vertical-align:top;">httponly</td><td style="vertical-align:top;">:</td><td><div></div></td></tr><tr><td style="font-weight:bold;vertical-align:top;">max-age</td><td style="vertical-align:top;">:</td><td><div></div></td></tr><tr><td style="font-weight:bold;vertical-align:top;">path</td><td style="vertical-align:top;">:</td><td><div></div></td></tr><tr><td style="font-weight:bold;vertical-align:top;">secure</td><td style="vertical-align:top;">:</td><td><div></div></td></tr><tr><td style="font-weight:bold;vertical-align:top;">version</td><td style="vertical-align:top;">:</td><td><div></div></td></tr></table></div></td></tr></table></div></td></tr><tr><td style="font-weight:bold;vertical-align:top;">env</td><td style="vertical-align:top;">:</td><td><div><table><tr><td style="font-weight:bold;vertical-align:top;">HTTP_ACCEPT</td><td style="vertical-align:top;">:</td><td><div>text/html,application/xhtml+xml,application/xml;q=0.9,*/*;q=0.8</div></td></tr><tr><td style="font-weight:bold;vertical-align:top;">HTTP_ACCEPT_ENCODING</td><td style="vertical-align:top;">:</td><td><div>gzip, deflate</div></td></tr><tr><td style="font-weight:bold;vertical-align:top;">HTTP_ACCEPT_LANGUAGE</td><td style="vertical-align:top;">:</td><td><div>en-US,en;q=0.5</div></td></tr><tr><td style="font-weight:bold;vertical-align:top;">HTTP_CACHE_CONTROL</td><td style="vertical-align:top;">:</td><td><div>max-age=0</div></td></tr><tr><td style="font-weight:bold;vertical-align:top;">HTTP_CONNECTION</td><td style="vertical-align:top;">:</td><td><div>keep-alive</div></td></tr><tr><td style="font-weight:bold;vertical-align:top;">HTTP_COOKIE</td><td style="vertical-align:top;">:</td><td><div>session_id_eip_web=127.0.0.1-290faa9f-c9a4-4161-a3e1-d86af56fc251; session_id_admin=127.0.0.1-3e84f48c-c9b5-43ec-a74e-b1cece858e8a; session_id_welcome=127.0.0.1-4c165ec1-37dd-4daf-980a-d64fd33744be; session_id_eip_solution=True; session_data_eip_solution=&quot;b6c4f1991a301b8b3d52314286a95b2b:k54AH1HvqKyJEn-QNoGJ2t1r-YhwbpO2BuFEqigw9pOEwaQtb_n2gXfBLWzj2aicbwGIV8z5IVYalFwEz9yERaABmO3rA8zT3Quukl4EMse7AEjLfKfGXHp1Qq_hmhehmDddcVkMiGiBP5RWQiUtDPLDndedUi4GfQRzl48eo4KjIN3834Eyi5KsFFjdLKb5uBGJGVc-gm-Lkx3fRVkig_rSFy0zFgPenaFB1t9eWGFbdajGy2Ukgb_SK1TtxZ_WpouewQDm9ayZHscanStnXb-si34JtOzFCy_dDrCun_ghXd_1ZZ8i_5UwGUF9o_2u&quot;; style=null</div></td></tr><tr><td style="font-weight:bold;vertical-align:top;">HTTP_HOST</td><td style="vertical-align:top;">:</td><td><div>127.0.0.1:8000</div></td></tr><tr><td style="font-weight:bold;vertical-align:top;">HTTP_REFERER</td><td style="vertical-align:top;">:</td><td><div>http://127.0.0.1:8000/admin/default/site</div></td></tr><tr><td style="font-weight:bold;vertical-align:top;">HTTP_USER_AGENT</td><td style="vertical-align:top;">:</td><td><div>Mozilla/5.0 (X11; Ubuntu; Linux x86_64; rv:37.0) Gecko/20100101 Firefox/37.0</div></td></tr><tr><td style="font-weight:bold;vertical-align:top;">PATH_INFO</td><td style="vertical-align:top;">:</td><td><div>/eip_solution/default/index</div></td></tr><tr><td style="font-weight:bold;vertical-align:top;">QUERY_STRING</td><td style="vertical-align:top;">:</td><td><div></div></td></tr><tr><td style="font-weight:bold;vertical-align:top;">REMOTE_ADDR</td><td style="vertical-align:top;">:</td><td><div>127.0.0.1</div></td></tr><tr><td style="font-weight:bold;vertical-align:top;">REMOTE_PORT</td><td style="vertical-align:top;">:</td><td><div>45909</div></td></tr><tr><td style="font-weight:bold;vertical-align:top;">REQUEST_METHOD</td><td style="vertical-align:top;">:</td><td><div>GET</div></td></tr><tr><td style="font-weight:bold;vertical-align:top;">SCRIPT_NAME</td><td style="vertical-align:top;">:</td><td><div></div></td></tr><tr><td style="font-weight:bold;vertical-align:top;">SERVER_NAME</td><td style="vertical-align:top;">:</td><td><div>flo-hpLaptop</div></td></tr><tr><td style="font-weight:bold;vertical-align:top;">SERVER_PORT</td><td style="vertical-align:top;">:</td><td><div>8000</div></td></tr><tr><td style="font-weight:bold;vertical-align:top;">SERVER_PROTOCOL</td><td style="vertical-align:top;">:</td><td><div>HTTP/1.1</div></td></tr><tr><td style="font-weight:bold;vertical-align:top;">SERVER_SOFTWARE</td><td style="vertical-align:top;">:</td><td><div>Rocket 1.2.6</div></td></tr><tr><td style="font-weight:bold;vertical-align:top;">app_folders</td><td style="vertical-align:top;">:</td><td><div>set([&#x27;/home/flo/perso/www/web2py-R-2.9.11/applications/welcome/&#x27;, &#x27;/home/flo/perso/www/web2py-R-2.9.11/applications/admin/&#x27;, &#x27;/home/flo/perso/www/web2py-R-2.9.11/applications/eip_solution/&#x27;, &#x27;/home/flo/perso/www/web2py-R-2.9.11/applications/examples/&#x27;, &#x27;/home/flo/perso/www/web2py-R-2.9.11/applications/eip_web/&#x27;])</div></td></tr><tr><td style="font-weight:bold;vertical-align:top;">applications_parent</td><td style="vertical-align:top;">:</td><td><div>/home/flo/perso/www/web2py-R-2.9.11</div></td></tr><tr><td style="font-weight:bold;vertical-align:top;">cmd_args</td><td style="vertical-align:top;">:</td><td><div><table></table></div></td></tr><tr><td style="font-weight:bold;vertical-align:top;">cmd_options</td><td style="vertical-align:top;">:</td><td><div>&lt;Values at 0x7f0f8ad755f0: {&#x27;verbose&#x27;: False, &#x27;ip&#x27;: &#x27;127.0.0.1&#x27;, &#x27;debuglevel&#x27;: 30, &#x27;with_scheduler&#x27;: False, &#x27;ips&#x27;: [&#x27;127.0.1.1&#x27;], &#x27;shutdown_timeout&#x27;: 5, &#x27;taskbar&#x27;: False, &#x27;with_coverage&#x27;: False, &#x27;scheduler_groups&#x27;: None, &#x27;port&#x27;: 8000, &#x27;maxthreads&#x27;: None, &#x27;softcron&#x27;: False, &#x27;server_name&#x27;: &#x27;flo-hpLaptop&#x27;, &#x27;bpython&#x27;: False, &#x27;nogui&#x27;: False, &#x27;pid_filename&#x27;: &#x27;httpserver.pid&#x27;, &#x27;extcron&#x27;: False, &#x27;runcron&#x27;: False, &#x27;run_system_tests&#x27;: False, &#x27;test&#x27;: None, &#x27;folder&#x27;: &#x27;/home/flo/perso/www/web2py-R-2.9.11&#x27;, &#x27;config&#x27;: &#x27;&#x27;, &#x27;minthreads&#x27;: None, &#x27;shell&#x27;: None, &#x27;run&#x27;: &#x27;&#x27;, &#x27;log_filename&#x27;: &#x27;httpserver.log&#x27;, &#x27;profiler_dir&#x27;: None, &#x27;args&#x27;: [&#x27;&#x27;], &#x27;socket_timeout&#x27;: 5, &#x27;ssl_ca_certificate&#x27;: None, &#x27;scheduler&#x27;: None, &#x27;interfaces&#x27;: None, &#x27;ssl_private_key&#x27;: &#x27;&#x27;, &#x27;gae&#x27;: None, &#x27;password&#x27;: &#x27;&lt;ask&gt;&#x27;, &#x27;request_queue_size&#x27;: 5, &#x27;ssl_certificate&#x27;: &#x27;&#x27;, &#x27;cronjob&#x27;: False, &#x27;numthreads&#x27;: None, &#x27;quiet&#x27;: False, &#x27;import_models&#x27;: False, &#x27;timeout&#x27;: 10, &#x27;plain&#x27;: False, &#x27;nobanner&#x27;: False}&gt;</div></td></tr><tr><td style="font-weight:bold;vertical-align:top;">db_sessions</td><td style="vertical-align:top;">:</td><td><div>set([])</div></td></tr><tr><td style="font-weight:bold;vertical-align:top;">debugging</td><td style="vertical-align:top;">:</td><td><div>False</div></td></tr><tr><td style="font-weight:bold;vertical-align:top;">gluon_parent</td><td style="vertical-align:top;">:</td><td><div>/home/flo/perso/www/web2py-R-2.9.11</div></td></tr><tr><td style="font-weight:bold;vertical-align:top;">http_accept</td><td style="vertical-align:top;">:</td><td><div>text/html,application/xhtml+xml,application/xml;q=0.9,*/*;q=0.8</div></td></tr><tr><td style="font-weight:bold;vertical-align:top;">http_accept_encoding</td><td style="vertical-align:top;">:</td><td><div>gzip, deflate</div></td></tr><tr><td style="font-weight:bold;vertical-align:top;">http_accept_language</td><td style="vertical-align:top;">:</td><td><div>en-US,en;q=0.5</div></td></tr><tr><td style="font-weight:bold;vertical-align:top;">http_cache_control</td><td style="vertical-align:top;">:</td><td><div>max-age=0</div></td></tr><tr><td style="font-weight:bold;vertical-align:top;">http_connection</td><td style="vertical-align:top;">:</td><td><div>keep-alive</div></td></tr><tr><td style="font-weight:bold;vertical-align:top;">http_cookie</td><td style="vertical-align:top;">:</td><td><div>session_id_eip_web=127.0.0.1-290faa9f-c9a4-4161-a3e1-d86af56fc251; session_id_admin=127.0.0.1-3e84f48c-c9b5-43ec-a74e-b1cece858e8a; session_id_welcome=127.0.0.1-4c165ec1-37dd-4daf-980a-d64fd33744be; session_id_eip_solution=True; session_data_eip_solution=&quot;b6c4f1991a301b8b3d52314286a95b2b:k54AH1HvqKyJEn-QNoGJ2t1r-YhwbpO2BuFEqigw9pOEwaQtb_n2gXfBLWzj2aicbwGIV8z5IVYalFwEz9yERaABmO3rA8zT3Quukl4EMse7AEjLfKfGXHp1Qq_hmhehmDddcVkMiGiBP5RWQiUtDPLDndedUi4GfQRzl48eo4KjIN3834Eyi5KsFFjdLKb5uBGJGVc-gm-Lkx3fRVkig_rSFy0zFgPenaFB1t9eWGFbdajGy2Ukgb_SK1TtxZ_WpouewQDm9ayZHscanStnXb-si34JtOzFCy_dDrCun_ghXd_1ZZ8i_5UwGUF9o_2u&quot;; style=null</div></td></tr><tr><td style="font-weight:bold;vertical-align:top;">http_host</td><td style="vertical-align:top;">:</td><td><div>127.0.0.1:8000</div></td></tr><tr><td style="font-weight:bold;vertical-align:top;">http_referer</td><td style="vertical-align:top;">:</td><td><div>http://127.0.0.1:8000/admin/default/site</div></td></tr><tr><td style="font-weight:bold;vertical-align:top;">http_user_agent</td><td style="vertical-align:top;">:</td><td><div>Mozilla/5.0 (X11; Ubuntu; Linux x86_64; rv:37.0) Gecko/20100101 Firefox/37.0</div></td></tr><tr><td style="font-weight:bold;vertical-align:top;">is_jython</td><td style="vertical-align:top;">:</td><td><div>False</div></td></tr><tr><td style="font-weight:bold;vertical-align:top;">is_pypy</td><td style="vertical-align:top;">:</td><td><div>False</div></td></tr><tr><td style="font-weight:bold;vertical-align:top;">is_source</td><td style="vertical-align:top;">:</td><td><div>True</div></td></tr><tr><td style="font-weight:bold;vertical-align:top;">local_hosts</td><td style="vertical-align:top;">:</td><td><div><table><tr><td><div>::1</div></td></tr><tr><td><div>127.0.1.1</div></td></tr><tr><td><div>::ffff:127.0.0.1</div></td></tr><tr><td><div>127.0.0.1</div></td></tr><tr><td><div>flo-hpLaptop</div></td></tr></table></div></td></tr><tr><td style="font-weight:bold;vertical-align:top;">path_info</td><td style="vertical-align:top;">:</td><td><div>/eip_solution/default/index</div></td></tr><tr><td style="font-weight:bold;vertical-align:top;">query_string</td><td style="vertical-align:top;">:</td><td><div></div></td></tr><tr><td style="font-weight:bold;vertical-align:top;">remote_addr</td><td style="vertical-align:top;">:</td><td><div>127.0.0.1</div></td></tr><tr><td style="font-weight:bold;vertical-align:top;">remote_port</td><td style="vertical-align:top;">:</td><td><div>45909</div></td></tr><tr><td style="font-weight:bold;vertical-align:top;">request_method</td><td style="vertical-align:top;">:</td><td><div>GET</div></td></tr><tr><td style="font-weight:bold;vertical-align:top;">request_uri</td><td style="vertical-align:top;">:</td><td><div>/eip_solution/default/index</div></td></tr><tr><td style="font-weight:bold;vertical-align:top;">script_name</td><td style="vertical-align:top;">:</td><td><div></div></td></tr><tr><td style="font-weight:bold;vertical-align:top;">server_name</td><td style="vertical-align:top;">:</td><td><div>flo-hpLaptop</div></td></tr><tr><td style="font-weight:bold;vertical-align:top;">server_port</td><td style="vertical-align:top;">:</td><td><div>8000</div></td></tr><tr><td style="font-weight:bold;vertical-align:top;">server_protocol</td><td style="vertical-align:top;">:</td><td><div>HTTP/1.1</div></td></tr><tr><td style="font-weight:bold;vertical-align:top;">server_software</td><td style="vertical-align:top;">:</td><td><div>Rocket 1.2.6</div></td></tr><tr><td style="font-weight:bold;vertical-align:top;">web2py_path</td><td style="vertical-align:top;">:</td><td><div>/home/flo/perso/www/web2py-R-2.9.11</div></td></tr><tr><td style="font-weight:bold;vertical-align:top;">web2py_version</td><td style="vertical-align:top;">:</td><td><div>2.9.11-stable+timestamp.2014.09.15.18.31.17</div></td></tr><tr><td style="font-weight:bold;vertical-align:top;">wsgi.errors</td><td style="vertical-align:top;">:</td><td><div>&lt;open file &#x27;&lt;stderr&gt;&#x27;, mode &#x27;w&#x27; at 0x7f0f92b721e0&gt;</div></td></tr><tr><td style="font-weight:bold;vertical-align:top;">wsgi.file_wrapper</td><td style="vertical-align:top;">:</td><td><div>&lt;class wsgiref.util.FileWrapper at 0x7f0f8d7efef0&gt;</div></td></tr><tr><td style="font-weight:bold;vertical-align:top;">wsgi.input</td><td style="vertical-align:top;">:</td><td><div>&lt;socket._fileobject object at 0x7f0f590156d0&gt;</div></td></tr><tr><td style="font-weight:bold;vertical-align:top;">wsgi.multiprocess</td><td style="vertical-align:top;">:</td><td><div>False</div></td></tr><tr><td style="font-weight:bold;vertical-align:top;">wsgi.multithread</td><td style="vertical-align:top;">:</td><td><div>True</div></td></tr><tr><td style="font-weight:bold;vertical-align:top;">wsgi.run_once</td><td style="vertical-align:top;">:</td><td><div>False</div></td></tr><tr><td style="font-weight:bold;vertical-align:top;">wsgi.url_scheme</td><td style="vertical-align:top;">:</td><td><div>http</div></td></tr><tr><td style="font-weight:bold;vertical-align:top;">wsgi.version</td><td style="vertical-align:top;">:</td><td><div><table><tr><td><div>1</div></td></tr><tr><td><div>0</div></td></tr></table></div></td></tr><tr><td style="font-weight:bold;vertical-align:top;">wsgi_errors</td><td style="vertical-align:top;">:</td><td><div>&lt;open file &#x27;&lt;stderr&gt;&#x27;, mode &#x27;w&#x27; at 0x7f0f92b721e0&gt;</div></td></tr><tr><td style="font-weight:bold;vertical-align:top;">wsgi_file_wrapper</td><td style="vertical-align:top;">:</td><td><div>&lt;class wsgiref.util.FileWrapper at 0x7f0f8d7efef0&gt;</div></td></tr><tr><td style="font-weight:bold;vertical-align:top;">wsgi_input</td><td style="vertical-align:top;">:</td><td><div>&lt;socket._fileobject object at 0x7f0f590156d0&gt;</div></td></tr><tr><td style="font-weight:bold;vertical-align:top;">wsgi_multiprocess</td><td style="vertical-align:top;">:</td><td><div>False</div></td></tr><tr><td style="font-weight:bold;vertical-align:top;">wsgi_multithread</td><td style="vertical-align:top;">:</td><td><div>True</div></td></tr><tr><td style="font-weight:bold;vertical-align:top;">wsgi_run_once</td><td style="vertical-align:top;">:</td><td><div>False</div></td></tr><tr><td style="font-weight:bold;vertical-align:top;">wsgi_url_scheme</td><td style="vertical-align:top;">:</td><td><div>http</div></td></tr><tr><td style="font-weight:bold;vertical-align:top;">wsgi_version</td><td style="vertical-align:top;">:</td><td><div><table><tr><td><div>1</div></td></tr><tr><td><div>0</div></td></tr></table></div></td></tr></table></div></td></tr><tr><td style="font-weight:bold;vertical-align:top;">extension</td><td style="vertical-align:top;">:</td><td><div>html</div></td></tr><tr><td style="font-weight:bold;vertical-align:top;">folder</td><td style="vertical-align:top;">:</td><td><div>/home/flo/perso/www/web2py-R-2.9.11/applications/eip_solution/</div></td></tr><tr><td style="font-weight:bold;vertical-align:top;">function</td><td style="vertical-align:top;">:</td><td><div>index</div></td></tr><tr><td style="font-weight:bold;vertical-align:top;">global_settings</td><td style="vertical-align:top;">:</td><td><div><table><tr><td style="font-weight:bold;vertical-align:top;">app_folders</td><td style="vertical-align:top;">:</td><td><div>set([&#x27;/home/flo/perso/www/web2py-R-2.9.11/applications/welcome/&#x27;, &#x27;/home/flo/perso/www/web2py-R-2.9.11/applications/admin/&#x27;, &#x27;/home/flo/perso/www/web2py-R-2.9.11/applications/eip_solution/&#x27;, &#x27;/home/flo/perso/www/web2py-R-2.9.11/applications/examples/&#x27;, &#x27;/home/flo/perso/www/web2py-R-2.9.11/applications/eip_web/&#x27;])</div></td></tr><tr><td style="font-weight:bold;vertical-align:top;">applications_parent</td><td style="vertical-align:top;">:</td><td><div>/home/flo/perso/www/web2py-R-2.9.11</div></td></tr><tr><td style="font-weight:bold;vertical-align:top;">cmd_args</td><td style="vertical-align:top;">:</td><td><div><table></table></div></td></tr><tr><td style="font-weight:bold;vertical-align:top;">cmd_options</td><td style="vertical-align:top;">:</td><td><div>&lt;Values at 0x7f0f8ad755f0: {&#x27;verbose&#x27;: False, &#x27;ip&#x27;: &#x27;127.0.0.1&#x27;, &#x27;debuglevel&#x27;: 30, &#x27;with_scheduler&#x27;: False, &#x27;ips&#x27;: [&#x27;127.0.1.1&#x27;], &#x27;shutdown_timeout&#x27;: 5, &#x27;taskbar&#x27;: False, &#x27;with_coverage&#x27;: False, &#x27;scheduler_groups&#x27;: None, &#x27;port&#x27;: 8000, &#x27;maxthreads&#x27;: None, &#x27;softcron&#x27;: False, &#x27;server_name&#x27;: &#x27;flo-hpLaptop&#x27;, &#x27;bpython&#x27;: False, &#x27;nogui&#x27;: False, &#x27;pid_filename&#x27;: &#x27;httpserver.pid&#x27;, &#x27;extcron&#x27;: False, &#x27;runcron&#x27;: False, &#x27;run_system_tests&#x27;: False, &#x27;test&#x27;: None, &#x27;folder&#x27;: &#x27;/home/flo/perso/www/web2py-R-2.9.11&#x27;, &#x27;config&#x27;: &#x27;&#x27;, &#x27;minthreads&#x27;: None, &#x27;shell&#x27;: None, &#x27;run&#x27;: &#x27;&#x27;, &#x27;log_filename&#x27;: &#x27;httpserver.log&#x27;, &#x27;profiler_dir&#x27;: None, &#x27;args&#x27;: [&#x27;&#x27;], &#x27;socket_timeout&#x27;: 5, &#x27;ssl_ca_certificate&#x27;: None, &#x27;scheduler&#x27;: None, &#x27;interfaces&#x27;: None, &#x27;ssl_private_key&#x27;: &#x27;&#x27;, &#x27;gae&#x27;: None, &#x27;password&#x27;: &#x27;&lt;ask&gt;&#x27;, &#x27;request_queue_size&#x27;: 5, &#x27;ssl_certificate&#x27;: &#x27;&#x27;, &#x27;cronjob&#x27;: False, &#x27;numthreads&#x27;: None, &#x27;quiet&#x27;: False, &#x27;import_models&#x27;: False, &#x27;timeout&#x27;: 10, &#x27;plain&#x27;: False, &#x27;nobanner&#x27;: False}&gt;</div></td></tr><tr><td style="font-weight:bold;vertical-align:top;">db_sessions</td><td style="vertical-align:top;">:</td><td><div>set([])</div></td></tr><tr><td style="font-weight:bold;vertical-align:top;">debugging</td><td style="vertical-align:top;">:</td><td><div>False</div></td></tr><tr><td style="font-weight:bold;vertical-align:top;">gluon_parent</td><td style="vertical-align:top;">:</td><td><div>/home/flo/perso/www/web2py-R-2.9.11</div></td></tr><tr><td style="font-weight:bold;vertical-align:top;">is_jython</td><td style="vertical-align:top;">:</td><td><div>False</div></td></tr><tr><td style="font-weight:bold;vertical-align:top;">is_pypy</td><td style="vertical-align:top;">:</td><td><div>False</div></td></tr><tr><td style="font-weight:bold;vertical-align:top;">is_source</td><td style="vertical-align:top;">:</td><td><div>True</div></td></tr><tr><td style="font-weight:bold;vertical-align:top;">local_hosts</td><td style="vertical-align:top;">:</td><td><div><table><tr><td><div>::1</div></td></tr><tr><td><div>127.0.1.1</div></td></tr><tr><td><div>::ffff:127.0.0.1</div></td></tr><tr><td><div>127.0.0.1</div></td></tr><tr><td><div>flo-hpLaptop</div></td></tr></table></div></td></tr><tr><td style="font-weight:bold;vertical-align:top;">web2py_version</td><td style="vertical-align:top;">:</td><td><div>2.9.11-stable+timestamp.2014.09.15.18.31.17</div></td></tr></table></div></td></tr><tr><td style="font-weight:bold;vertical-align:top;">is_https</td><td style="vertical-align:top;">:</td><td><div>False</div></td></tr><tr><td style="font-weight:bold;vertical-align:top;">is_local</td><td style="vertical-align:top;">:</td><td><div>True</div></td></tr><tr><td style="font-weight:bold;vertical-align:top;">is_restful</td><td style="vertical-align:top;">:</td><td><div>False</div></td></tr><tr><td style="font-weight:bold;vertical-align:top;">is_sheduler</td><td style="vertical-align:top;">:</td><td><div>None</div></td></tr><tr><td style="font-weight:bold;vertical-align:top;">is_shell</td><td style="vertical-align:top;">:</td><td><div>None</div></td></tr><tr><td style="font-weight:bold;vertical-align:top;">now</td><td style="vertical-align:top;">:</td><td><div>datetime.datetime(2015, 11, 11, 21, 7, 56, 644011)</div></td></tr><tr><td style="font-weight:bold;vertical-align:top;">raw_args</td><td style="vertical-align:top;">:</td><td><div></div></td></tr><tr><td style="font-weight:bold;vertical-align:top;">raw_extension</td><td style="vertical-align:top;">:</td><td><div>None</div></td></tr><tr><td style="font-weight:bold;vertical-align:top;">url</td><td style="vertical-align:top;">:</td><td><div>/eip_solution/default/index</div></td></tr><tr><td style="font-weight:bold;vertical-align:top;">utcnow</td><td style="vertical-align:top;">:</td><td><div>datetime.datetime(2015, 11, 12, 2, 7, 56, 644034)</div></td></tr><tr><td style="font-weight:bold;vertical-align:top;">uuid</td><td style="vertical-align:top;">:</td><td><div>eip_solution/127.0.0.1.2015-11-11.21-07-56.65d2490f-fdb1-4cf0-8a64-9f5495f54b5c</div></td></tr><tr><td style="font-weight:bold;vertical-align:top;">wsgi</td><td style="vertical-align:top;">:</td><td><div>&lt;gluon.main.LazyWSGI object at 0x7f0f41ad5510&gt;</div></td></tr></table></div>'
tRp58
sS'frames'
p59
(lp60
(dp61
S'file'
p62
S'/home/flo/perso/www/web2py-R-2.9.11/gluon/restricted.py'
p63
sS'dump'
p64
(dp65
S'environment'
p66
S"{'A': <class 'gluon.html.A'>, 'ANY_OF': <class 'gluon.validators.ANY_OF'>, 'ASSIGNJS': <function ASSIGNJS>, 'B': <class 'gluon.html.B'>, 'BEAUTIFY': <class 'gluon.html.BEAUTIFY'>, 'BODY': <class 'gluon.html.BODY'>, 'BR': <class 'gluon.html.BR'>, 'BUTTON': <class 'gluon.html.BUTTON'>, 'CAT': <class 'gluon.html.CAT'>, 'CENTER': <class 'gluon.html.CENTER'>, ...}"
p67
sS'ccode'
p68
S'<code object <module> at 0x7f0f41a4c1b0, file "/...s/eip_solution/views/default/index.html", line 1>'
p69
ssS'lnum'
p70
I224
sS'lines'
p71
(dp72
I224
S'        exec ccode in environment'
p73
sI225
S'    except HTTP:'
p74
sI226
S'        raise'
p75
sI227
S'    except RestrictedError:'
p76
sI228
S'        # do not encapsulate (obfuscate) the original RestrictedError'
p77
sI219
S'    try:'
p78
sI220
S'        if isinstance(code, types.CodeType):'
p79
sI221
S'            ccode = code'
p80
sI222
S'        else:'
p81
sI223
S'            ccode = compile2(code, layer)'
p82
ssS'call'
p83
S'(code=\'response.write(\\\'<!--[if HTML5]><![endif]-->\\\\n<!D..."></script>\\\\n</body>\\\\n</html>\\\\n\\\\n\\\', escape=False)\', environment={\'A\': <class \'gluon.html.A\'>, \'ANY_OF\': <class \'gluon.validators.ANY_OF\'>, \'ASSIGNJS\': <function ASSIGNJS>, \'B\': <class \'gluon.html.B\'>, \'BEAUTIFY\': <class \'gluon.html.BEAUTIFY\'>, \'BODY\': <class \'gluon.html.BODY\'>, \'BR\': <class \'gluon.html.BR\'>, \'BUTTON\': <class \'gluon.html.BUTTON\'>, \'CAT\': <class \'gluon.html.CAT\'>, \'CENTER\': <class \'gluon.html.CENTER\'>, ...}, layer=\'/home/flo/perso/www/web2py-R-2.9.11/applications/eip_solution/views/default/index.html\')'
p84
sS'func'
p85
S'restricted'
p86
sa(dp87
g62
S'/home/flo/perso/www/web2py-R-2.9.11/applications/eip_solution/views/default/index.html'
p88
sg64
(dp89
S'div'
p90
S'undefined'
p91
ssg70
I24
sg71
(dp92
I32
S"response.write('\\n    ', escape=False)"
p93
sI33
S'response.write(\'\\n\\n  </div> <!-- /container -->\\n  \\n  <!-- Start Footer Section -->\\n    <footer>\\n      <div class="container">\\n        <div class="row footer-widgets">\\n\\n\\n          <!-- Start Subscribe & Social Links Widget -->\\n          <div class="col-md-3 col-xs-12">\\n            <div class="footer-widget mail-subscribe-widget">\\n              <h4>Get in touch<span class="head-line"></span></h4>\\n              <p>Join our mailing list to stay up to date and get notices about our new releases!</p>\\n              <form class="subscribe">\\n                <input type="text" placeholder="mail@example.com">\\n                <input type="submit" class="btn-system" value="Send">\\n              </form>\\n            </div>\\n            <div class="footer-widget social-widget">\\n              <h4>Follow Us<span class="head-line"></span></h4>\\n              <ul class="social-icons">\\n                <li>\\n                  <a class="facebook" href="#"><i class="fa fa-facebook"></i></a>\\n                </li>\\n                <li>\\n                  <a class="twitter" href="#"><i class="fa fa-twitter"></i></a>\\n                </li>\\n                <li>\\n                  <a class="google" href="#"><i class="fa fa-google-plus"></i></a>\\n                </li>\\n                <li>\\n                  <a class="dribbble" href="#"><i class="fa fa-dribbble"></i></a>\\n                </li>\\n                <li>\\n                  <a class="linkdin" href="#"><i class="fa fa-linkedin"></i></a>\\n                </li>\\n                <li>\\n                  <a class="flickr" href="#"><i class="fa fa-flickr"></i></a>\\n                </li>\\n                <li>\\n                  <a class="tumblr" href="#"><i class="fa fa-tumblr"></i></a>\\n                </li>\\n                <li>\\n                  <a class="instgram" href="#"><i class="fa fa-instagram"></i></a>\\n                </li>\\n                <li>\\n                  <a class="vimeo" href="#"><i class="fa fa-vimeo-square"></i></a>\\n                </li>\\n                <li>\\n                  <a class="skype" href="#"><i class="fa fa-skype"></i></a>\\n                </li>\\n              </ul>\\n            </div>\\n          </div>\\n          <!-- .col-md-3 -->\\n          <!-- End Subscribe & Social Links Widget -->\\n\\n\\n          <!-- Start Twitter Widget -->\\n          <div class="col-md-3 col-xs-12">\\n            <div class="footer-widget twitter-widget">\\n              <h4>Twitter Feed<span class="head-line"></span></h4>\\n              <ul>\\n                <li>\\n                  <p><a href="#">@GrayGrids </a> Lorem ipsum dolor et, consectetur adipiscing eli.</p>\\n                  <span>28 February 2014</span>\\n                </li>\\n                <li>\\n                  <p><a href="#">@GrayGrids </a> Lorem ipsum dolor et, consectetur adipiscing eli.An Fusce eleifend aliquet nis application.</p>\\n                  <span>26 February 2014</span>\\n                </li>\\n                <li>\\n                  <p><a href="#">@GrayGrids </a> Lorem ipsum dolor et, consectetur adipiscing eli.</p>\\n                  <span>28 February 2014</span>\\n                </li>\\n              </ul>\\n            </div>\\n          </div>\\n          <!-- .col-md-3 -->\\n          <!-- End Twitter Widget -->\\n\\n\\n          <!-- Start Flickr Widget -->\\n          <div class="col-md-3 col-xs-12">\\n            <div class="footer-widget flickr-widget">\\n              <h4>Flicker Feed<span class="head-line"></span></h4>\\n              <ul class="flickr-list">\\n                <li>\\n                  <a href="images/flickr-01.jpg" class="lightbox">\\n                    <img alt="" src="images/flickr-01.jpg">\\n                  </a>\\n                </li>\\n                <li>\\n                  <a href="images/flickr-02.jpg" class="lightbox">\\n                    <img alt="" src="images/flickr-02.jpg">\\n                  </a>\\n                </li>\\n                <li>\\n                  <a href="images/flickr-03.jpg" class="lightbox">\\n                    <img alt="" src="images/flickr-03.jpg">\\n                  </a>\\n                </li>\\n                <li>\\n                  <a href="images/flickr-04.jpg" class="lightbox">\\n                    <img alt="" src="images/flickr-04.jpg">\\n                  </a>\\n                </li>\\n                <li>\\n                  <a href="images/flickr-05.jpg" class="lightbox">\\n                    <img alt="" src="images/flickr-05.jpg">\\n                  </a>\\n                </li>\\n                <li>\\n                  <a href="images/flickr-06.jpg" class="lightbox">\\n                    <img alt="" src="images/flickr-06.jpg">\\n                  </a>\\n                </li>\\n                <li>\\n                  <a href="images/flickr-07.jpg" class="lightbox">\\n                    <img alt="" src="images/flickr-07.jpg">\\n                  </a>\\n                </li>\\n                <li>\\n                  <a href="images/flickr-08.jpg" class="lightbox">\\n                    <img alt="" src="images/flickr-08.jpg">\\n                  </a>\\n                </li>\\n                <li>\\n                  <a href="images/flickr-09.jpg" class="lightbox">\\n                    <img alt="" src="images/flickr-09.jpg">\\n                  </a>\\n                </li>\\n              </ul>\\n            </div>\\n          </div>\\n          <!-- .col-md-3 -->\\n          <!-- End Flickr Widget -->\\n\\n\\n          <!-- Start Contact Widget -->\\n          <div class="col-md-3 col-xs-12">\\n            <div class="footer-widget contact-widget">\\n              <h4><img src="images/footer-margo.png" class="img-responsive" alt="Footer Logo" /></h4>\\n              <p>At vero eos et accusamus et iusto odio dignissimos ducimus qui blanditiis praesentium voluptatum deleniti atque corrupti quos dolores et quas molestias excepturi sint occaecati cupiditate non provident</p>\\n              <ul>\\n                <li><span>Phone Number:</span> +01 234 567 890</li>\\n                <li><span>Email:</span> company@company.com</li>\\n                <li><span>Website:</span> www.yourdomain.com</li>\\n              </ul>\\n            </div>\\n          </div>\\n          <!-- .col-md-3 -->\\n          <!-- End Contact Widget -->\\n\\n\\n        </div>\\n        <!-- .row -->\\n\\n        <!-- Start Copyright -->\\n        <div class="copyright-section">\\n          <div class="row">\\n            <div class="col-md-6">\\n              <p>&copy; 2014 Margo - All Rights Reserved <a href="http://graygrids.com">GrayGrids</a> </p>\\n            </div>\\n            <!-- .col-md-6 -->\\n            <div class="col-md-6">\\n              <ul class="footer-nav">\\n                <li><a href="#">Sitemap</a>\\n                </li>\\n                <li><a href="#">Privacy Policy</a>\\n                </li>\\n                <li><a href="#">Contact</a>\\n                </li>\\n              </ul>\\n            </div>\\n            <!-- .col-md-6 -->\\n          </div>\\n          <!-- .row -->\\n        </div>\\n        <!-- End Copyright -->\\n\\n      </div>\\n    </footer>\\n    <!-- End Footer Section -->\\n\\n  <!-- The javascript =============================================\\n       (Placed at the end of the document so the pages load faster) -->\\n  <script src="\', escape=False)'
p94
sI34
S"response.write(URL('static','margo/js/jquery-2.1.4.min.js'))"
p95
sI15
S"response.write(T('%Y-%m-%d %H:%M:%S'))"
p96
sI16
S'response.write(\'";\\n    var ajax_error_500 = \\\'\', escape=False)'
p97
sI17
S"response.write(T.M('An error occured, please [[reload %s]] the page') % URL(args=request.args, vars=request.get_vars))"
p98
sI18
S'response.write("\'\\n    //--></script>\\n", escape=False)'
p99
sI19
S'response.include_meta()'
p100
sI20
S'response.include_files()'
p101
sI21
S"response.write('\\n', escape=False)"
p102
sI22
S"response.write('\\n  ', escape=False)"
p103
sI23
S'response.write(\'\\n</head>\\n\\n<body>\\n  <!-- Full Body Container -->\\n  <div id="container">\\n          \', escape=False)'
p104
sI24
S'if response.menu and auth.is_logged_in():'
p105
sI25
S"    response.write('\\n          ', escape=False)"
p106
sI26
S"    response.write(MENU(response.menu, _class='mobile-menu nav' if is_mobile else 'nav',mobile=is_mobile,li_class='dropdown',ul_class='dropdown-menu'))"
p107
sI27
S"    response.write('\\n          ', escape=False)"
p108
sI28
S'    pass'
p109
sI29
S'response.write(\'\\n    <!-- Start Header Section -->\\n    <div class="hidden-header"></div>\\n    <header class="clearfix">\\n\\n      <!-- Start Top Bar -->\\n      <div class="top-bar">\\n        <div class="container">\\n          <div class="row">\\n            <div class="col-md-7">\\n              <!-- Start Contact Info -->\\n              <ul class="contact-details">\\n                <li><a href="#"><i class="fa fa-map-marker"></i> House-54/A, London, UK</a>\\n                </li>\\n                <li><a href="#"><i class="fa fa-envelope-o"></i> info@yourcompany.com</a>\\n                </li>\\n                <li><a href="#"><i class="fa fa-phone"></i> +12 345 678 000</a>\\n                </li>\\n              </ul>\\n              <!-- End Contact Info -->\\n            </div>\\n            <!-- .col-md-6 -->\\n            <div class="col-md-5">\\n              <!-- Start Social Links -->\\n              <ul class="social-list">\\n                <li>\\n                  <a class="facebook itl-tooltip" data-placement="bottom" title="Facebook" href="#"><i class="fa fa-facebook"></i></a>\\n                </li>\\n                <li>\\n                  <a class="twitter itl-tooltip" data-placement="bottom" title="Twitter" href="#"><i class="fa fa-twitter"></i></a>\\n                </li>\\n                <li>\\n                  <a class="google itl-tooltip" data-placement="bottom" title="Google Plus" href="#"><i class="fa fa-google-plus"></i></a>\\n                </li>\\n                <li>\\n                  <a class="dribbble itl-tooltip" data-placement="bottom" title="Dribble" href="#"><i class="fa fa-dribbble"></i></a>\\n                </li>\\n                <li>\\n                  <a class="linkdin itl-tooltip" data-placement="bottom" title="Linkedin" href="#"><i class="fa fa-linkedin"></i></a>\\n                </li>\\n                <li>\\n                  <a class="flickr itl-tooltip" data-placement="bottom" title="Flickr" href="#"><i class="fa fa-flickr"></i></a>\\n                </li>\\n                <li>\\n                  <a class="tumblr itl-tooltip" data-placement="bottom" title="Tumblr" href="#"><i class="fa fa-tumblr"></i></a>\\n                </li>\\n                <li>\\n                  <a class="instgram itl-tooltip" data-placement="bottom" title="Instagram" href="#"><i class="fa fa-instagram"></i></a>\\n                </li>\\n                <li>\\n                  <a class="vimeo itl-tooltip" data-placement="bottom" title="vimeo" href="#"><i class="fa fa-vimeo-square"></i></a>\\n                </li>\\n                <li>\\n                  <a class="skype itl-tooltip" data-placement="bottom" title="Skype" href="#"><i class="fa fa-skype"></i></a>\\n                </li>\\n              </ul>\\n              <!-- End Social Links -->\\n            </div>\\n            <!-- .col-md-6 -->\\n          </div>\\n          <!-- .row -->\\n        </div>\\n        <!-- .container -->\\n      </div>\\n      <!-- .top-bar -->\\n      <!-- End Top Bar -->\\n\\n\\n      <!-- Start  Logo & Naviagtion  -->\\n      <div class="navbar navbar-default navbar-top">\\n        <div class="container">\\n          <div class="navbar-header">\\n            <!-- Stat Toggle Nav Link For Mobiles -->\\n            <button type="button" class="navbar-toggle" data-toggle="collapse" data-target=".navbar-collapse">\\n              <i class="fa fa-bars"></i>\\n            </button>\\n            <!-- End Toggle Nav Link For Mobiles -->\\n            <a class="navbar-brand" href="index.html">\\n              <img alt="" src="images/margo.png">\\n            </a>\\n          </div>\\n          <div class="navbar-collapse collapse">\\n            <!-- Stat Search -->\\n            <div class="search-side">\\n              <a class="show-search"><i class="fa fa-search"></i></a>\\n              <div class="search-form">\\n                <form autocomplete="off" role="search" method="get" class="searchform" action="#">\\n                  <input type="text" value="" name="s" id="s" placeholder="Search the site...">\\n                </form>\\n              </div>\\n            </div>\\n            <!-- End Search -->\\n            <!-- Start Navigation List -->\\n            <ul class="nav navbar-nav navbar-right">\\n              <li>\\n                <a class="active" href="index.html">Home</a>\\n                <ul class="dropdown">\\n                  <li><a class="active" href="index.html">Home Main Version</a>\\n                  </li>\\n                  <li><a href="index-01.html">Home Version 1</a>\\n                  </li>\\n                  <li><a href="index-02.html">Home Version 2</a>\\n                  </li>\\n                  <li><a href="index-03.html">Home Version 3</a>\\n                  </li>\\n                  <li><a href="index-04.html">Home Version 4</a>\\n                  </li>\\n                  <li><a href="index-05.html">Home Version 5</a>\\n                  </li>\\n                  <li><a href="index-06.html">Home Version 6</a>\\n                  </li>\\n                  <li><a href="index-07.html">Home Version 7</a>\\n                  </li>\\n                </ul>\\n              </li>\\n              <li>\\n                <a href="about.html">Pages</a>\\n                <ul class="dropdown">\\n                  <li><a href="about.html">About</a>\\n                  </li>\\n                  <li><a href="services.html">Services</a>\\n                  </li>\\n                  <li><a href="right-sidebar.html">Right Sidebar</a>\\n                  </li>\\n                  <li><a href="left-sidebar.html">Left Sidebar</a>\\n                  </li>\\n                  <li><a href="404.html">404 Page</a>\\n                  </li>\\n                </ul>\\n              </li>\\n              <li>\\n                <a href="#">Shortcodes</a>\\n                <ul class="dropdown">\\n                  <li><a href="tabs.html">Tabs</a>\\n                  </li>\\n                  <li><a href="buttons.html">Buttons</a>\\n                  </li>\\n                  <li><a href="action-box.html">Action Box</a>\\n                  </li>\\n                  <li><a href="testimonials.html">Testimonials</a>\\n                  </li>\\n                  <li><a href="latest-posts.html">Latest Posts</a>\\n                  </li>\\n                  <li><a href="latest-projects.html">Latest Projects</a>\\n                  </li>\\n                  <li><a href="pricing.html">Pricing Tables</a>\\n                  </li>\\n                  <li><a href="animated-graphs.html">Animated Graphs</a>\\n                  </li>\\n                  <li><a href="accordion-toggles.html">Accordion & Toggles</a>\\n                  </li>\\n                </ul>\\n              </li>\\n              <li>\\n                <a href="portfolio-3.html">Portfolio</a>\\n                <ul class="dropdown">\\n                  <li><a href="portfolio-2.html">2 Columns</a>\\n                  </li>\\n                  <li><a href="portfolio-3.html">3 Columns</a>\\n                  </li>\\n                  <li><a href="portfolio-4.html">4 Columns</a>\\n                  </li>\\n                  <li><a href="single-project.html">Single Project</a>\\n                  </li>\\n                </ul>\\n              </li>\\n              <li>\\n                <a href="blog.html">Blog</a>\\n                <ul class="dropdown">\\n                  <li><a href="blog.html">Blog - right Sidebar</a>\\n                  </li>\\n                  <li><a href="blog-left-sidebar.html">Blog - Left Sidebar</a>\\n                  </li>\\n                  <li><a href="single-post.html">Blog Single Post</a>\\n                  </li>\\n                </ul>\\n              </li>\\n              <li><a href="contact.html">Contact</a>\\n              </li>\\n            </ul>\\n            <!-- End Navigation List -->\\n          </div>\\n        </div>\\n\\n        <!-- Mobile Menu Start -->\\n        <ul class="wpb-mobile-menu">\\n          <li>\\n            <a class="active" href="index.html">Home</a>\\n            <ul class="dropdown">\\n              <li><a class="active" href="index.html">Home Main Version</a>\\n              </li>\\n              <li><a href="index-01.html">Home Version 1</a>\\n              </li>\\n              <li><a href="index-02.html">Home Version 2</a>\\n              </li>\\n              <li><a href="index-03.html">Home Version 3</a>\\n              </li>\\n              <li><a href="index-04.html">Home Version 4</a>\\n              </li>\\n              <li><a href="index-05.html">Home Version 5</a>\\n              </li>\\n              <li><a href="index-06.html">Home Version 6</a>\\n              </li>\\n              <li><a href="index-07.html">Home Version 7</a>\\n              </li>\\n            </ul>\\n          </li>\\n          <li>\\n            <a href="about.html">Pages</a>\\n            <ul class="dropdown">\\n              <li><a href="about.html">About</a>\\n              </li>\\n              <li><a href="services.html">Services</a>\\n              </li>\\n              <li><a href="right-sidebar.html">Right Sidebar</a>\\n              </li>\\n              <li><a href="left-sidebar.html">Left Sidebar</a>\\n              </li>\\n              <li><a href="404.html">404 Page</a>\\n              </li>\\n            </ul>\\n          </li>\\n          <li>\\n            <a href="#">Shortcodes</a>\\n            <ul class="dropdown">\\n              <li><a href="tabs.html">Tabs</a>\\n              </li>\\n              <li><a href="buttons.html">Buttons</a>\\n              </li>\\n              <li><a href="action-box.html">Action Box</a>\\n              </li>\\n              <li><a href="testimonials.html">Testimonials</a>\\n              </li>\\n              <li><a href="latest-posts.html">Latest Posts</a>\\n              </li>\\n              <li><a href="latest-projects.html">Latest Projects</a>\\n              </li>\\n              <li><a href="pricing.html">Pricing Tables</a>\\n              </li>\\n              <li><a href="animated-graphs.html">Animated Graphs</a>\\n              </li>\\n              <li><a href="accordion-toggles.html">Accordion & Toggles</a>\\n              </li>\\n            </ul>\\n          </li>\\n          <li>\\n            <a href="portfolio-3.html">Portfolio</a>\\n            <ul class="dropdown">\\n              <li><a href="portfolio-2.html">2 Columns</a>\\n              </li>\\n              <li><a href="portfolio-3.html">3 Columns</a>\\n              </li>\\n              <li><a href="portfolio-4.html">4 Columns</a>\\n              </li>\\n              <li><a href="single-project.html">Single Project</a>\\n              </li>\\n            </ul>\\n          </li>\\n          <li>\\n            <a href="blog.html">Blog</a>\\n            <ul class="dropdown">\\n              <li><a href="blog.html">Blog - right Sidebar</a>\\n              </li>\\n              <li><a href="blog-left-sidebar.html">Blog - Left Sidebar</a>\\n              </li>\\n              <li><a href="single-post.html">Blog Single Post</a>\\n              </li>\\n            </ul>\\n          </li>\\n          <li>\\n            <a href="contact.html">Contact</a>\\n          </li>\\n        </ul>\\n        <!-- Mobile Menu End -->\\n\\n      </div>\\n      <!-- End Header Logo & Naviagtion -->\\n\\n    </header>\\n    <!-- End Header Section -->\\n    \\n    \', escape=False)'
p110
sI30
S"response.write('\\n    ', escape=False)"
p111
sI31
S'response.write(\'\\n\\n<!-- Start Testimonials Section -->\\n    <div>\\n      <div class="container">\\n        <div class="row">\\n          <div class="col-md-8">\\n\\n            <!-- Start Recent Posts Carousel -->\\n            <div class="latest-posts">\\n              <h4 class="classic-title"><span>Latest News</span></h4>\\n              <div class="latest-posts-classic custom-carousel touch-carousel" data-appeared-items="2">\\n\\n                <!-- Posts 1 -->\\n                <div class="post-row item">\\n                  <div class="left-meta-post">\\n                    <div class="post-date"><span class="day">28</span><span class="month">Dec</span></div>\\n                    <div class="post-type"><i class="fa fa-picture-o"></i></div>\\n                  </div>\\n                  <h3 class="post-title"><a href="#">Standard Post With Image</a></h3>\\n                  <div class="post-content">\\n                    <p>Duis aute irure dolor in reprehenderit in voluptate velit esse cillum dolore eu fugiat nulla pariatur. Excepteur sint occaecat cupidatat non proident, sunt in culpa qui officia deserunt mollit. <a class="read-more" href="#">Read More...</a></p>\\n                  </div>\\n                </div>\\n\\n                <!-- Posts 2 -->\\n                <div class="post-row item">\\n                  <div class="left-meta-post">\\n                    <div class="post-date"><span class="day">26</span><span class="month">Dec</span></div>\\n                    <div class="post-type"><i class="fa fa-picture-o"></i></div>\\n                  </div>\\n                  <h3 class="post-title"><a href="#">Link Post</a></h3>\\n                  <div class="post-content">\\n                    <p>Duis aute irure dolor in reprehenderit in voluptate velit esse cillum dolore eu fugiat nulla pariatur. Excepteur sint occaecat cupidatat non proident, sunt in culpa qui officia deserunt mollit. <a class="read-more" href="#">Read More...</a></p>\\n                  </div>\\n                </div>\\n\\n                <!-- Posts 3 -->\\n                <div class="post-row item">\\n                  <div class="left-meta-post">\\n                    <div class="post-date"><span class="day">26</span><span class="month">Dec</span></div>\\n                    <div class="post-type"><i class="fa fa-picture-o"></i></div>\\n                  </div>\\n                  <h3 class="post-title"><a href="#">Iframe Video Post</a></h3>\\n                  <div class="post-content">\\n                    <p>Duis aute irure dolor in reprehenderit in voluptate velit esse cillum dolore eu fugiat nulla pariatur. Excepteur sint occaecat cupidatat non proident, sunt in culpa qui officia deserunt mollit. <a class="read-more" href="#">Read More...</a></p>\\n                  </div>\\n                </div>\\n\\n                <!-- Posts 4 -->\\n                <div class="post-row item">\\n                  <div class="left-meta-post">\\n                    <div class="post-date"><span class="day">26</span><span class="month">Dec</span></div>\\n                    <div class="post-type"><i class="fa fa-picture-o"></i></div>\\n                  </div>\\n                  <h3 class="post-title"><a href="#">Gallery Post</a></h3>\\n                  <div class="post-content">\\n                    <p>Duis aute irure dolor in reprehenderit in voluptate velit esse cillum dolore eu fugiat nulla pariatur. Excepteur sint occaecat cupidatat non proident, sunt in culpa qui officia deserunt mollit. <a class="read-more" href="#">Read More...</a></p>\\n                  </div>\\n                </div>\\n\\n                <!-- Posts 5 -->\\n                <div class="post-row item">\\n                  <div class="left-meta-post">\\n                    <div class="post-date"><span class="day">26</span><span class="month">Dec</span></div>\\n                    <div class="post-type"><i class="fa fa-picture-o"></i></div>\\n                  </div>\\n                  <h3 class="post-title"><a href="#">Standard Post without Image</a></h3>\\n                  <div class="post-content">\\n                    <p>Duis aute irure dolor in reprehenderit in voluptate velit esse cillum dolore eu fugiat nulla pariatur. Excepteur sint occaecat cupidatat non proident, sunt in culpa qui officia deserunt mollit. <a class="read-more" href="#">Read More...</a></p>\\n                  </div>\\n                </div>\\n\\n                <!-- Posts 6 -->\\n                <div class="post-row item">\\n                  <div class="left-meta-post">\\n                    <div class="post-date"><span class="day">26</span><span class="month">Dec</span></div>\\n                    <div class="post-type"><i class="fa fa-picture-o"></i></div>\\n                  </div>\\n                  <h3 class="post-title"><a href="#">Iframe Audio Post</a></h3>\\n                  <div class="post-content">\\n                    <p>Duis aute irure dolor in reprehenderit in voluptate velit esse cillum dolore eu fugiat nulla pariatur. Excepteur sint occaecat cupidatat non proident, sunt in culpa qui officia deserunt mollit. <a class="read-more" href="#">Read More...</a></p>\\n                  </div>\\n                </div>\\n\\n              </div>\\n            </div>\\n            <!-- End Recent Posts Carousel -->\\n\\n          </div>\\n\\n          <div class="col-md-4">\\n\\n            <!-- Classic Heading -->\\n            <h4 class="classic-title"><span>Testimonials</span></h4>\\n\\n            <!-- Start Testimonials Carousel -->\\n            <div class="custom-carousel show-one-slide touch-carousel" data-appeared-items="1">\\n              <!-- Testimonial 1 -->\\n              <div class="classic-testimonials item">\\n                <div class="testimonial-content">\\n                  <p>Excepteur sint occaecat cupidatat non proident, sunt in culpa qui officia deserunt mollit anim laborum. Lorem ipsum dolor sit amet, consectetur adipisicing elit.</p>\\n                </div>\\n                <div class="testimonial-author"><span>John Doe</span> - Customer</div>\\n              </div>\\n              <!-- Testimonial 2 -->\\n              <div class="classic-testimonials item">\\n                <div class="testimonial-content">\\n                  <p>Excepteur sint occaecat cupidatat non proident, sunt in culpa qui officia deserunt mollit anim laborum. Lorem ipsum dolor sit amet, consectetur adipisicing elit.</p>\\n                </div>\\n                <div class="testimonial-author"><span>John Doe</span> - Customer</div>\\n              </div>\\n              <!-- Testimonial 3 -->\\n              <div class="classic-testimonials item">\\n                <div class="testimonial-content">\\n                  <p>Excepteur sint occaecat cupidatat non proident, sunt in culpa qui officia deserunt mollit anim laborum. Lorem ipsum dolor sit amet, consectetur adipisicing elit.</p>\\n                </div>\\n                <div class="testimonial-author"><span>John Doe</span> - Customer</div>\\n              </div>\\n            </div>\\n            <!-- End Testimonials Carousel -->\\n\\n          </div>\\n        </div>\\n      </div>\\n    </div>\\n    \\n   <!-- Start Team Member Section -->\\n    <div class="section" style="background:#fff;">\\n      <div class="container">\\n\\n        <!-- Start Big Heading -->\\n        <div class="big-title text-center" data-animation="fadeInDown" data-animation-delay="01">\\n          <h1>Our Great <strong>Team</strong></h1>\\n        </div>\\n        <!-- End Big Heading -->\\n\\n        <!-- Some Text -->\\n        <p class="text-center">Sed ut perspiciatis unde omnis iste natus error sit voluptatem accusantium <span class="accent-color sh-tooltip" data-placement="right" title="Simple Tooltip">doloremque laudantium</span>, totam rem aperiam, eaque ipsa quae ab illo inventore\\n          <br/>veritatis et quasi <span class="accent-color sh-tooltip" data-placement="bottom" title="Simple Tooltip">architecto</span> beatae vitae dicta sunt explicabo. Nemo enim ipsam voluptatem quia voluptas sit aspernatur aut odit aut fugit.</p>\\n\\n\\n        <!-- Start Team Members -->\\n        <div class="row">\\n\\n          <!-- Start Memebr 1 -->\\n          <div class="col-md-3 col-sm-6 col-xs-12" data-animation="fadeIn" data-animation-delay="03">\\n            <div class="team-member modern">\\n              <!-- Memebr Photo, Name & Position -->\\n              <div class="member-photo">\\n                <img alt="" src="images/team/face_1.png" />\\n                <div class="member-name">John Doe <span>Developer</span>\\n                </div>\\n              </div>\\n              <!-- Memebr Words -->\\n              <div class="member-info">\\n                <p>Duis aute irure dolor in reprehenderit in voluptate velit esse cillum dolore fugiat.</p>\\n              </div>\\n              <!-- Start Progress Bar 1 -->\\n              <div class="progress-label">Photoshop</div>\\n              <div class="progress">\\n                <div class="progress-bar progress-bar-primary" data-progress-animation="96%" data-appear-animation-delay="400">\\n                  <span class="percentage">96%</span>\\n                </div>\\n              </div>\\n              <!-- Start Progress Bar 2 -->\\n              <div class="progress-label">Logo Design</div>\\n              <div class="progress">\\n                <div class="progress-bar progress-bar-primary" data-progress-animation="88%" data-appear-animation-delay="800">\\n                  <span class="percentage">88%</span>\\n                </div>\\n              </div>\\n              <!-- Start Progress Bar 3 -->\\n              <div class="progress-label">Vectors Design</div>\\n              <div class="progress">\\n                <div class="progress-bar progress-bar-primary" data-progress-animation="100%" data-appear-animation-delay="1200">\\n                  <span class="percentage">100%</span>\\n                </div>\\n              </div>\\n              <!-- Memebr Social Links -->\\n              <div class="member-socail">\\n                <a class="twitter" href="#"><i class="fa fa-twitter"></i></a>\\n                <a class="gplus" href="#"><i class="fa fa-google-plus"></i></a>\\n                <a class="linkedin" href="#"><i class="fa fa-linkedin"></i></a>\\n                <a class="flickr" href="#"><i class="fa fa-flickr"></i></a>\\n                <a class="mail" href="#"><i class="fa fa-envelope"></i></a>\\n              </div>\\n            </div>\\n          </div>\\n          <!-- End Memebr 1 -->\\n\\n          <!-- Start Memebr 2 -->\\n          <div class="col-md-3 col-sm-6 col-xs-12" data-animation="fadeIn" data-animation-delay="04">\\n            <div class="team-member modern">\\n              <!-- Memebr Photo, Name & Position -->\\n              <div class="member-photo">\\n                <img alt="" src="images/team/face_2.png" />\\n                <div class="member-name">Silly Sally <span>Developer</span>\\n                </div>\\n              </div>\\n              <!-- Memebr Words -->\\n              <div class="member-info">\\n                <p>Duis aute irure dolor in reprehenderit in voluptate velit esse cillum dolore fugiat.</p>\\n              </div>\\n              <!-- Start Progress Bar 1 -->\\n              <div class="progress-label">Photoshop</div>\\n              <div class="progress">\\n                <div class="progress-bar progress-bar-primary" data-progress-animation="96%" data-appear-animation-delay="400">\\n                  <span class="percentage">96%</span>\\n                </div>\\n              </div>\\n              <!-- Start Progress Bar 2 -->\\n              <div class="progress-label">Logo Design</div>\\n              <div class="progress">\\n                <div class="progress-bar progress-bar-primary" data-progress-animation="88%" data-appear-animation-delay="800">\\n                  <span class="percentage">88%</span>\\n                </div>\\n              </div>\\n              <!-- Start Progress Bar 3 -->\\n              <div class="progress-label">Vectors Design</div>\\n              <div class="progress">\\n                <div class="progress-bar progress-bar-primary" data-progress-animation="100%" data-appear-animation-delay="1200">\\n                  <span class="percentage">100%</span>\\n                </div>\\n              </div>\\n              <!-- Memebr Social Links -->\\n              <div class="member-socail">\\n                <a class="twitter" href="#"><i class="fa fa-twitter"></i></a>\\n                <a class="gplus" href="#"><i class="fa fa-google-plus"></i></a>\\n                <a class="linkedin" href="#"><i class="fa fa-linkedin"></i></a>\\n                <a class="flickr" href="#"><i class="fa fa-flickr"></i></a>\\n                <a class="mail" href="#"><i class="fa fa-envelope"></i></a>\\n              </div>\\n            </div>\\n          </div>\\n          <!-- End Memebr 2 -->\\n\\n          <!-- Start Memebr 3 -->\\n          <div class="col-md-3 col-sm-6 col-xs-12" data-animation="fadeIn" data-animation-delay="05">\\n            <div class="team-member modern">\\n              <!-- Memebr Photo, Name & Position -->\\n              <div class="member-photo">\\n                <img alt="" src="images/team/face_3.png" />\\n                <div class="member-name">Chris John <span>Developer</span>\\n                </div>\\n              </div>\\n              <!-- Memebr Words -->\\n              <div class="member-info">\\n                <p>Duis aute irure dolor in reprehenderit in voluptate velit esse cillum dolore fugiat.</p>\\n              </div>\\n              <!-- Start Progress Bar 1 -->\\n              <div class="progress-label">Photoshop</div>\\n              <div class="progress">\\n                <div class="progress-bar progress-bar-primary" data-progress-animation="96%" data-appear-animation-delay="400">\\n                  <span class="percentage">96%</span>\\n                </div>\\n              </div>\\n              <!-- Start Progress Bar 2 -->\\n              <div class="progress-label">Logo Design</div>\\n              <div class="progress">\\n                <div class="progress-bar progress-bar-primary" data-progress-animation="94%" data-appear-animation-delay="800">\\n                  <span class="percentage">94%</span>\\n                </div>\\n              </div>\\n              <!-- Start Progress Bar 3 -->\\n              <div class="progress-label">Vectors Design</div>\\n              <div class="progress">\\n                <div class="progress-bar progress-bar-primary" data-progress-animation="90%" data-appear-animation-delay="1200">\\n                  <span class="percentage">90%</span>\\n                </div>\\n              </div>\\n              <!-- Memebr Social Links -->\\n              <div class="member-socail">\\n                <a class="twitter" href="#"><i class="fa fa-twitter"></i></a>\\n                <a class="gplus" href="#"><i class="fa fa-google-plus"></i></a>\\n                <a class="linkedin" href="#"><i class="fa fa-linkedin"></i></a>\\n                <a class="flickr" href="#"><i class="fa fa-flickr"></i></a>\\n                <a class="mail" href="#"><i class="fa fa-envelope"></i></a>\\n              </div>\\n            </div>\\n          </div>\\n          <!-- End Memebr 3 -->\\n\\n          <!-- Start Memebr 4 -->\\n          <div class="col-md-3 col-sm-6 col-xs-12" data-animation="fadeIn" data-animation-delay="06">\\n            <div class="team-member modern">\\n              <!-- Memebr Photo, Name & Position -->\\n              <div class="member-photo">\\n                <img alt="" src="images/team/face_4.png" />\\n                <div class="member-name">Sara John <span>Developer</span>\\n                </div>\\n              </div>\\n              <!-- Memebr Words -->\\n              <div class="member-info">\\n                <p>Duis aute irure dolor in reprehenderit in voluptate velit esse cillum dolore fugiat.</p>\\n              </div>\\n              <!-- Start Progress Bar 1 -->\\n              <div class="progress-label">Photoshop</div>\\n              <div class="progress">\\n                <div class="progress-bar progress-bar-primary" data-progress-animation="96%" data-appear-animation-delay="400">\\n                  <span class="percentage">96%</span>\\n                </div>\\n              </div>\\n              <!-- Start Progress Bar 2 -->\\n              <div class="progress-label">Logo Design</div>\\n              <div class="progress">\\n                <div class="progress-bar progress-bar-primary" data-progress-animation="85%" data-appear-animation-delay="800">\\n                  <span class="percentage">85%</span>\\n                </div>\\n              </div>\\n              <!-- Start Progress Bar 3 -->\\n              <div class="progress-label">Vectors Design</div>\\n              <div class="progress">\\n                <div class="progress-bar progress-bar-primary" data-progress-animation="100%" data-appear-animation-delay="1200">\\n                  <span class="percentage">100%</span>\\n                </div>\\n              </div>\\n              <!-- Memebr Social Links -->\\n              <div class="member-socail">\\n                <a class="twitter" href="#"><i class="fa fa-twitter"></i></a>\\n                <a class="gplus" href="#"><i class="fa fa-google-plus"></i></a>\\n                <a class="linkedin" href="#"><i class="fa fa-linkedin"></i></a>\\n                <a class="flickr" href="#"><i class="fa fa-flickr"></i></a>\\n                <a class="mail" href="#"><i class="fa fa-envelope"></i></a>\\n              </div>\\n            </div>\\n          </div>\\n          <!-- End Memebr 4 -->\\n\\n        </div>\\n        <!-- End Team Members -->\\n\\n      </div>\\n      <!-- .container -->\\n    </div>\\n    <!-- End Team Member Section -->\\n\\n\', escape=False)'
p112
ssg83
S'()'
p113
sg85
S'<module>'
p114
sasS'pyver'
p115
S'Python 2.7.6: /usr/bin/python (prefix: /usr)'
p116
sS'session'
p117
g57
(S's\x1a\x00\x00\x00<div><table></table></div>'
tRp118
sS'etype'
p119
S"<type 'exceptions.NameError'>"
p120
sS'date'
p121
S'Wed Nov 11 21:07:56 2015'
p122
sS'response'
p123
g57
(S's\xde\x1c\x00\x00<div><table><tr><td style="font-weight:bold;vertical-align:top;">body</td><td style="vertical-align:top;">:</td><td><div>&lt;cStringIO.StringO object at 0x7f0f41ac0650&gt;</div></td></tr><tr><td style="font-weight:bold;vertical-align:top;">cookies</td><td style="vertical-align:top;">:</td><td><div><table><tr><td style="font-weight:bold;vertical-align:top;">session_id_eip_solution</td><td style="vertical-align:top;">:</td><td><div>127.0.0.1-a13d45fd-f6d1-42fd-8882-612b4b419213<table><tr><td style="font-weight:bold;vertical-align:top;">comment</td><td style="vertical-align:top;">:</td><td><div></div></td></tr><tr><td style="font-weight:bold;vertical-align:top;">domain</td><td style="vertical-align:top;">:</td><td><div></div></td></tr><tr><td style="font-weight:bold;vertical-align:top;">expires</td><td style="vertical-align:top;">:</td><td><div></div></td></tr><tr><td style="font-weight:bold;vertical-align:top;">httponly</td><td style="vertical-align:top;">:</td><td><div></div></td></tr><tr><td style="font-weight:bold;vertical-align:top;">max-age</td><td style="vertical-align:top;">:</td><td><div></div></td></tr><tr><td style="font-weight:bold;vertical-align:top;">path</td><td style="vertical-align:top;">:</td><td><div>/</div></td></tr><tr><td style="font-weight:bold;vertical-align:top;">secure</td><td style="vertical-align:top;">:</td><td><div></div></td></tr><tr><td style="font-weight:bold;vertical-align:top;">version</td><td style="vertical-align:top;">:</td><td><div></div></td></tr></table></div></td></tr></table></div></td></tr><tr><td style="font-weight:bold;vertical-align:top;">delimiters</td><td style="vertical-align:top;">:</td><td><div><table><tr><td><div>{{</div></td></tr><tr><td><div>}}</div></td></tr></table></div></td></tr><tr><td style="font-weight:bold;vertical-align:top;">files</td><td style="vertical-align:top;">:</td><td><div><table><tr><td><div>/eip_solution/static/margo/asset/css/bootstrap.min.css</div></td></tr><tr><td><div>/eip_solution/static/margo/css/font-awesome.min.css</div></td></tr><tr><td><div>/eip_solution/static/margo/css/slicknav.css</div></td></tr><tr><td><div>/eip_solution/static/margo/css/style.css</div></td></tr><tr><td><div>/eip_solution/static/margo/css/responsive.css</div></td></tr><tr><td><div>/eip_solution/static/margo/css/animate.css</div></td></tr><tr><td><div>/eip_solution/static/margo/css/colors/red.css</div></td></tr></table></div></td></tr><tr><td style="font-weight:bold;vertical-align:top;">flash</td><td style="vertical-align:top;">:</td><td><div></div></td></tr><tr><td style="font-weight:bold;vertical-align:top;">form_label_separator</td><td style="vertical-align:top;">:</td><td><div>: </div></td></tr><tr><td style="font-weight:bold;vertical-align:top;">formstyle</td><td style="vertical-align:top;">:</td><td><div>table3cols</div></td></tr><tr><td style="font-weight:bold;vertical-align:top;">generic_patterns</td><td style="vertical-align:top;">:</td><td><div><table><tr><td><div>*</div></td></tr></table></div></td></tr><tr><td style="font-weight:bold;vertical-align:top;">headers</td><td style="vertical-align:top;">:</td><td><div><table><tr><td style="font-weight:bold;vertical-align:top;">X-Powered-By</td><td style="vertical-align:top;">:</td><td><div>web2py</div></td></tr></table></div></td></tr><tr><td style="font-weight:bold;vertical-align:top;">menu</td><td style="vertical-align:top;">:</td><td><div><table><tr><td><div><table><tr><td><div>Home</div></td></tr><tr><td><div>False</div></td></tr><tr><td><div>/eip_solution/default/index</div></td></tr></table></div></td></tr><tr><td><div><table><tr><td><div>About</div></td></tr><tr><td><div>False</div></td></tr><tr><td><div>/eip_solution/default/what</div></td></tr></table></div></td></tr><tr><td><div><table><tr><td><div>Download</div></td></tr><tr><td><div>False</div></td></tr><tr><td><div>/eip_solution/default/download</div></td></tr></table></div></td></tr><tr><td><div><table><tr><td><div>Docs &amp; Resources</div></td></tr><tr><td><div>False</div></td></tr><tr><td><div>/eip_solution/default/documentation</div></td></tr></table></div></td></tr><tr><td><div><table><tr><td><div>Support</div></td></tr><tr><td><div>False</div></td></tr><tr><td><div>/eip_solution/default/support</div></td></tr></table></div></td></tr><tr><td><div><table><tr><td><div>Contributors</div></td></tr><tr><td><div>False</div></td></tr><tr><td><div>/eip_solution/default/who</div></td></tr></table></div></td></tr></table></div></td></tr><tr><td style="font-weight:bold;vertical-align:top;">meta</td><td style="vertical-align:top;">:</td><td><div><table></table></div></td></tr><tr><td style="font-weight:bold;vertical-align:top;">models_to_run</td><td style="vertical-align:top;">:</td><td><div><table><tr><td><div>^\\w+\\.py$</div></td></tr><tr><td><div>^default/\\w+\\.py$</div></td></tr><tr><td><div>^default/index/\\w+\\.py$</div></td></tr></table></div></td></tr><tr><td style="font-weight:bold;vertical-align:top;">postprocessing</td><td style="vertical-align:top;">:</td><td><div><table></table></div></td></tr><tr><td style="font-weight:bold;vertical-align:top;">session_client</td><td style="vertical-align:top;">:</td><td><div>127.0.0.1</div></td></tr><tr><td style="font-weight:bold;vertical-align:top;">session_cookie_compression_level</td><td style="vertical-align:top;">:</td><td><div>None</div></td></tr><tr><td style="font-weight:bold;vertical-align:top;">session_cookie_expires</td><td style="vertical-align:top;">:</td><td><div>None</div></td></tr><tr><td style="font-weight:bold;vertical-align:top;">session_cookie_key</td><td style="vertical-align:top;">:</td><td><div>yoursecret</div></td></tr><tr><td style="font-weight:bold;vertical-align:top;">session_data_name</td><td style="vertical-align:top;">:</td><td><div>session_data_eip_solution</div></td></tr><tr><td style="font-weight:bold;vertical-align:top;">session_file</td><td style="vertical-align:top;">:</td><td><div>None</div></td></tr><tr><td style="font-weight:bold;vertical-align:top;">session_filename</td><td style="vertical-align:top;">:</td><td><div>/home/flo/perso/www/web2py-R-2.9.11/applications/eip_solution/sessions/127.0.0.1-a13d45fd-f6d1-42fd-8882-612b4b419213</div></td></tr><tr><td style="font-weight:bold;vertical-align:top;">session_hash</td><td style="vertical-align:top;">:</td><td><div>d503271ac2ef41cfab4ebeea477bf7cc</div></td></tr><tr><td style="font-weight:bold;vertical-align:top;">session_id</td><td style="vertical-align:top;">:</td><td><div>True</div></td></tr><tr><td style="font-weight:bold;vertical-align:top;">session_id_name</td><td style="vertical-align:top;">:</td><td><div>session_id_eip_solution</div></td></tr><tr><td style="font-weight:bold;vertical-align:top;">session_masterapp</td><td style="vertical-align:top;">:</td><td><div>eip_solution</div></td></tr><tr><td style="font-weight:bold;vertical-align:top;">session_new</td><td style="vertical-align:top;">:</td><td><div>True</div></td></tr><tr><td style="font-weight:bold;vertical-align:top;">session_storage_type</td><td style="vertical-align:top;">:</td><td><div>cookie</div></td></tr><tr><td style="font-weight:bold;vertical-align:top;">status</td><td style="vertical-align:top;">:</td><td><div>200</div></td></tr><tr><td style="font-weight:bold;vertical-align:top;">view</td><td style="vertical-align:top;">:</td><td><div>default/index.html</div></td></tr></table></div>'
tRp124
sS'locals'
p125
(dp126
S'toggle_menuclass'
p127
S'<function toggle_menuclass>'
p128
sS'OBJECT'
p129
S"<class 'gluon.html.OBJECT'>"
p130
sS'SQLDB'
p131
S"<class 'gluon.dal.DAL'>"
p132
sS'get_content'
p133
S'<function get_content>'
p134
sg117
S"<Storage {'_user_agent': <Storage {'os': <Storag...orage {'version': '37.0', 'name': 'Firefox'}>}>}>"
p135
sS'LINK'
p136
S"<class 'gluon.html.LINK'>"
p137
sS'BR'
p138
S"<class 'gluon.html.BR'>"
p139
sS'local_import'
p140
S'<function <lambda>>'
p141
sS'OPTGROUP'
p142
S"<class 'gluon.html.OPTGROUP'>"
p143
sS'__package__'
p144
S'None'
p145
sS'PRE'
p146
S"<class 'gluon.html.PRE'>"
p147
sS'IS_INT_IN_RANGE'
p148
S"<class 'gluon.validators.IS_INT_IN_RANGE'>"
p149
sS'IS_LOWER'
p150
S"<class 'gluon.validators.IS_LOWER'>"
p151
sS'IS_STRONG'
p152
S"<class 'gluon.validators.IS_STRONG'>"
p153
sS'cache'
p154
S'<gluon.cache.Cache object>'
p155
sS'IS_IN_DB'
p156
S"<class 'gluon.validators.IS_IN_DB'>"
p157
sS'TAG'
p158
S'<gluon.html.__TAG__ object>'
p159
sS'SQLField'
p160
S"<class 'gluon.dal.Field'>"
p161
sS'BODY'
p162
S"<class 'gluon.html.BODY'>"
p163
sS'IS_DATE_IN_RANGE'
p164
S"<class 'gluon.validators.IS_DATE_IN_RANGE'>"
p165
sS'TH'
p166
S"<class 'gluon.html.TH'>"
p167
sS'URL'
p168
S'<function URL>'
p169
sS'__file__'
p170
S"'/home/flo/perso/www/web2py-R-2.9.11/applications/eip_solution/views/default/index.html'"
p171
sS'P'
S"<class 'gluon.html.P'>"
p172
sS'TFOOT'
p173
S"<class 'gluon.html.TFOOT'>"
p174
sS'XHTML'
p175
S"<class 'gluon.html.XHTML'>"
p176
sS'ON'
p177
S'True'
p178
sS'OL'
p179
S"<class 'gluon.html.OL'>"
p180
sS'TEXTAREA'
p181
S"<class 'gluon.html.TEXTAREA'>"
p182
sS'MENU'
p183
S"<class 'gluon.html.MENU'>"
p184
sS'code_feed_reader'
p185
S'<function code_feed_reader>'
p186
sS'EM'
p187
S"<class 'gluon.html.EM'>"
p188
sS'CODE'
p189
S"<class 'gluon.html.CODE'>"
p190
sS'HTTP'
p191
S"<class 'gluon.http.HTTP'>"
p192
sS'HR'
p193
S"<class 'gluon.html.HR'>"
p194
sS'IS_DATETIME'
p195
S"<class 'gluon.validators.IS_DATETIME'>"
p196
sS'HEAD'
p197
S"<class 'gluon.html.HEAD'>"
p198
sS'LABEL'
p199
S"<class 'gluon.html.LABEL'>"
p200
sS'CLEANUP'
p201
S"<class 'gluon.validators.CLEANUP'>"
p202
sS'SELECT'
p203
S"<class 'gluon.html.SELECT'>"
p204
sS'CENTER'
p205
S"<class 'gluon.html.CENTER'>"
p206
sS'markmin_dict'
p207
S"{'br': <function <lambda>>, 'code_python': <function <lambda>>, 'groupdates': <function <lambda>>, 'sup': <function <lambda>>, 'template': <function <lambda>>}"
p208
sS'__builtins__'
p209
S"{'ArithmeticError': <type 'exceptions.ArithmeticError'>, 'AssertionError': <type 'exceptions.AssertionError'>, 'AttributeError': <type 'exceptions.AttributeError'>, 'BaseException': <type 'exceptions.BaseException'>, 'BufferError': <type 'exceptions.BufferError'>, 'BytesWarning': <type 'exceptions.BytesWarning'>, 'DeprecationWarning': <type 'exceptions.DeprecationWarning'>, 'EOFError': <type 'exceptions.EOFError'>, 'Ellipsis': Ellipsis, 'EnvironmentError': <type 'exceptions.EnvironmentError'>, ...}"
p210
sS'HTML'
p211
S"<class 'gluon.html.HTML'>"
p212
sS'SQLFORM'
p213
S"<class 'gluon.sqlhtml.SQLFORM'>"
p214
sS'LOAD'
p215
S'<function LOAD>'
p216
sS'redirect'
p217
S'<function redirect>'
p218
sS'FIELDSET'
p219
S"<class 'gluon.html.FIELDSET'>"
p220
sS'IS_EQUAL_TO'
p221
S"<class 'gluon.validators.IS_EQUAL_TO'>"
p222
sS'embed64'
p223
S'<function embed64>'
p224
sS'IS_LIST_OF'
p225
S"<class 'gluon.validators.IS_LIST_OF'>"
p226
sS'__name__'
p227
S"'__restricted__'"
p228
sS'EMBED'
p229
S"<class 'gluon.html.EMBED'>"
p230
sS'FORM'
p231
S"<class 'gluon.html.FORM'>"
p232
sS'H2'
p233
S"<class 'gluon.html.H2'>"
p234
sS'H3'
p235
S"<class 'gluon.html.H3'>"
p236
sS'BUTTON'
p237
S"<class 'gluon.html.BUTTON'>"
p238
sS'H1'
p239
S"<class 'gluon.html.H1'>"
p240
sS'H6'
p241
S"<class 'gluon.html.H6'>"
p242
sS'H4'
p243
S"<class 'gluon.html.H4'>"
p244
sS'H5'
p245
S"<class 'gluon.html.H5'>"
p246
sS'UL'
p247
S"<class 'gluon.html.UL'>"
p248
sS'IS_UPPER'
p249
S"<class 'gluon.validators.IS_UPPER'>"
p250
sS'xmlescape'
p251
S'<function xmlescape>'
p252
sS'IS_TIME'
p253
S"<class 'gluon.validators.IS_TIME'>"
p254
sS'OPTION'
p255
S"<class 'gluon.html.OPTION'>"
p256
sS'TITLE'
p257
S"<class 'gluon.html.TITLE'>"
p258
sS'CRYPT'
p259
S"<class 'gluon.validators.CRYPT'>"
p260
sS'IS_EMPTY_OR'
p261
S"<class 'gluon.validators.IS_EMPTY_OR'>"
p262
sS'MARKMIN'
p263
S"<class 'gluon.html.MARKMIN'>"
p264
sS'gluon'
p265
S"<module 'gluon' from '/home/flo/perso/www/web2py-R-2.9.11/gluon/__init__.pyc'>"
p266
sS'INPUT'
p267
S"<class 'gluon.html.INPUT'>"
p268
sS'STRONG'
p269
S"<class 'gluon.html.STRONG'>"
p270
sS'COL'
p271
S"<class 'gluon.html.COL'>"
p272
sS'SCRIPT'
p273
S"<class 'gluon.html.SCRIPT'>"
p274
sS'group_feed_reader'
p275
S'<function group_feed_reader>'
p276
sS'TABLE'
p277
S"<class 'gluon.html.TABLE'>"
p278
sS'IS_IPV4'
p279
S"<class 'gluon.validators.IS_IPV4'>"
p280
sS'IS_LENGTH'
p281
S"<class 'gluon.validators.IS_LENGTH'>"
p282
sS'IS_IPV6'
p283
S"<class 'gluon.validators.IS_IPV6'>"
p284
sS'XML'
p285
S"<class 'gluon.html.XML'>"
p286
sS'B'
S"<class 'gluon.html.B'>"
p287
sS'IMG'
p288
S"<class 'gluon.html.IMG'>"
p289
sS'SQLTABLE'
p290
S"<class 'gluon.sqlhtml.SQLTABLE'>"
p291
sS'IS_MATCH'
p292
S"<class 'gluon.validators.IS_MATCH'>"
p293
sS'IS_ALPHANUMERIC'
p294
S"<class 'gluon.validators.IS_ALPHANUMERIC'>"
p295
sS'SPAN'
p296
S"<class 'gluon.html.SPAN'>"
p297
sS'IS_JSON'
p298
S"<class 'gluon.validators.IS_JSON'>"
p299
sS'IS_IPADDRESS'
p300
S"<class 'gluon.validators.IS_IPADDRESS'>"
p301
sS'IS_SLUG'
p302
S"<class 'gluon.validators.IS_SLUG'>"
p303
sS'BEAUTIFY'
p304
S"<class 'gluon.html.BEAUTIFY'>"
p305
sS'META'
p306
S"<class 'gluon.html.META'>"
p307
sS'IS_DATE'
p308
S"<class 'gluon.validators.IS_DATE'>"
p309
sS'IS_EMAIL'
p310
S"<class 'gluon.validators.IS_EMAIL'>"
p311
sS'IS_NOT_EMPTY'
p312
S"<class 'gluon.validators.IS_NOT_EMPTY'>"
p313
sS'IS_FLOAT_IN_RANGE'
p314
S"<class 'gluon.validators.IS_FLOAT_IN_RANGE'>"
p315
sS'TBODY'
p316
S"<class 'gluon.html.TBODY'>"
p317
sS'CAT'
p318
S"<class 'gluon.html.CAT'>"
p319
sS'Field'
p320
S"<class 'gluon.dal.Field'>"
p321
sS'IS_LIST_OF_EMAILS'
p322
S"<class 'gluon.validators.IS_LIST_OF_EMAILS'>"
p323
sS'DIV'
p324
S"<class 'gluon.html.DIV'>"
p325
sS'LEGEND'
p326
S"<class 'gluon.html.LEGEND'>"
p327
sS'COLGROUP'
p328
S"<class 'gluon.html.COLGROUP'>"
p329
sS'DAL'
p330
S"<class 'gluon.dal.DAL'>"
p331
sS'ASSIGNJS'
p332
S'<function ASSIGNJS>'
p333
sS'TR'
p334
S"<class 'gluon.html.TR'>"
p335
sS'LI'
p336
S"<class 'gluon.html.LI'>"
p337
sS'IFRAME'
p338
S"<class 'gluon.html.IFRAME'>"
p339
sS'TD'
p340
S"<class 'gluon.html.TD'>"
p341
sS'IS_URL'
p342
S"<class 'gluon.validators.IS_URL'>"
p343
sS'A'
S"<class 'gluon.html.A'>"
p344
sS'STYLE'
p345
S"<class 'gluon.html.STYLE'>"
p346
sS'IS_DATETIME_IN_RANGE'
p347
S"<class 'gluon.validators.IS_DATETIME_IN_RANGE'>"
p348
sS'IS_IMAGE'
p349
S"<class 'gluon.validators.IS_IMAGE'>"
p350
sS'I'
S"<class 'gluon.html.I'>"
p351
sS'IS_NOT_IN_DB'
p352
S"<class 'gluon.validators.IS_NOT_IN_DB'>"
p353
sg123
S"<Storage {'body': <cStringIO.StringO object at 0...t 0x7f0f41ad3f50>, 'view': 'default/index.html'}>"
p354
sS'THEAD'
p355
S"<class 'gluon.html.THEAD'>"
p356
sS'ANY_OF'
p357
S"<class 'gluon.validators.ANY_OF'>"
p358
sS'IS_NULL_OR'
p359
S"<class 'gluon.validators.IS_EMPTY_OR'>"
p360
sg56
S"<Storage {'_vars': None, 'function': 'index', 'c...www/web2py-R-2.9.11/applications/eip_solution/'}>"
p361
sS'IS_EXPR'
p362
S"<class 'gluon.validators.IS_EXPR'>"
p363
sS'T'
S'<gluon.languages.translator object>'
p364
sS'IS_IN_SET'
p365
S"<class 'gluon.validators.IS_IN_SET'>"
p366
sS'IS_UPLOAD_FILENAME'
p367
S"<class 'gluon.validators.IS_UPLOAD_FILENAME'>"
p368
sS'TT'
p369
S"<class 'gluon.html.TT'>"
p370
sS'IS_DECIMAL_IN_RANGE'
p371
S"<class 'gluon.validators.IS_DECIMAL_IN_RANGE'>"
p372
sssS'traceback'
p373
S'Traceback (most recent call last):\n  File "/home/flo/perso/www/web2py-R-2.9.11/gluon/restricted.py", line 224, in restricted\n    exec ccode in environment\n  File "/home/flo/perso/www/web2py-R-2.9.11/applications/eip_solution/views/default/index.html", line 24, in <module>\n    </div>\nNameError: name \'auth\' is not defined\n'
p374
s.